	.file	"calcflow.cpp"
	.intel_syntax noprefix
 # GNU C++17 (MinGW-W64 x86_64-msvcrt-posix-seh, built by Brecht Sanders, r1) version 15.1.0 (x86_64-w64-mingw32)
 #	compiled by GNU C version 15.1.0, GMP version 6.3.0, MPFR version 4.2.2, MPC version 1.3.1, isl version isl-0.27-GMP

 # GGC heuristics: --param ggc-min-expand=100 --param ggc-min-heapsize=131072
 # options passed: -masm=intel -mtune=generic -march=x86-64 -std=gnu++17
	.text
	.section	.text$strtod,"x"
	.linkonce discard
	.globl	strtod
	.def	strtod;	.scl	2;	.type	32;	.endef
	.seh_proc	strtod
strtod:
.LFB27:
	push	rbp	 #
	.seh_pushreg	rbp
	mov	rbp, rsp	 #,
	.seh_setframe	rbp, 0
	sub	rsp, 32	 #,
	.seh_stackalloc	32
	.seh_endprologue
	mov	QWORD PTR 16[rbp], rcx	 # _Str, _Str
	mov	QWORD PTR 24[rbp], rdx	 # _EndPtr, _EndPtr
 # D:/mingw/mingw64/x86_64-w64-mingw32/include/stdlib.h:487:   return __mingw_strtod( _Str, _EndPtr);
	mov	rdx, QWORD PTR 24[rbp]	 # tmp100, _EndPtr
	mov	rax, QWORD PTR 16[rbp]	 # tmp101, _Str
	mov	rcx, rax	 #, tmp101
	call	__mingw_strtod	 #
 # D:/mingw/mingw64/x86_64-w64-mingw32/include/stdlib.h:488: }
	add	rsp, 32	 #,
	pop	rbp	 #
	ret	
	.seh_endproc
	.globl	_ZSt19piecewise_construct
	.section	.rdata$_ZSt19piecewise_construct,"dr"
	.linkonce same_size
_ZSt19piecewise_construct:
	.space 1
	.section	.text$_ZNSt14numeric_limitsIdE9quiet_NaNEv,"x"
	.linkonce discard
	.globl	_ZNSt14numeric_limitsIdE9quiet_NaNEv
	.def	_ZNSt14numeric_limitsIdE9quiet_NaNEv;	.scl	2;	.type	32;	.endef
	.seh_proc	_ZNSt14numeric_limitsIdE9quiet_NaNEv
_ZNSt14numeric_limitsIdE9quiet_NaNEv:
.LFB801:
	push	rbp	 #
	.seh_pushreg	rbp
	mov	rbp, rsp	 #,
	.seh_setframe	rbp, 0
	.seh_endprologue
 # D:/mingw/mingw64/include/c++/15.1.0/limits:1801:       quiet_NaN() _GLIBCXX_USE_NOEXCEPT { return __builtin_nan(""); }
	movsd	xmm0, QWORD PTR .LC0[rip]	 # _1,
 # D:/mingw/mingw64/include/c++/15.1.0/limits:1801:       quiet_NaN() _GLIBCXX_USE_NOEXCEPT { return __builtin_nan(""); }
	pop	rbp	 #
	ret	
	.seh_endproc
	.section	.text$_ZnwyPv,"x"
	.linkonce discard
	.globl	_ZnwyPv
	.def	_ZnwyPv;	.scl	2;	.type	32;	.endef
	.seh_proc	_ZnwyPv
_ZnwyPv:
.LFB1102:
	push	rbp	 #
	.seh_pushreg	rbp
	mov	rbp, rsp	 #,
	.seh_setframe	rbp, 0
	.seh_endprologue
	mov	QWORD PTR 16[rbp], rcx	 # D.21602, D.21602
	mov	QWORD PTR 24[rbp], rdx	 # __p, __p
 # D:/mingw/mingw64/include/c++/15.1.0/new:208: { return __p; }
	mov	rax, QWORD PTR 24[rbp]	 # _2, __p
 # D:/mingw/mingw64/include/c++/15.1.0/new:208: { return __p; }
	pop	rbp	 #
	ret	
	.seh_endproc
	.section	.text$_ZdlPvS_,"x"
	.linkonce discard
	.globl	_ZdlPvS_
	.def	_ZdlPvS_;	.scl	2;	.type	32;	.endef
	.seh_proc	_ZdlPvS_
_ZdlPvS_:
.LFB1104:
	push	rbp	 #
	.seh_pushreg	rbp
	mov	rbp, rsp	 #,
	.seh_setframe	rbp, 0
	.seh_endprologue
	mov	QWORD PTR 16[rbp], rcx	 # D.21610, D.21610
	mov	QWORD PTR 24[rbp], rdx	 # D.21611, D.21611
 # D:/mingw/mingw64/include/c++/15.1.0/new:219: { }
	nop	
	pop	rbp	 #
	ret	
	.seh_endproc
	.section	.text$_ZNSt11char_traitsIcE6assignERcRKc,"x"
	.linkonce discard
	.globl	_ZNSt11char_traitsIcE6assignERcRKc
	.def	_ZNSt11char_traitsIcE6assignERcRKc;	.scl	2;	.type	32;	.endef
	.seh_proc	_ZNSt11char_traitsIcE6assignERcRKc
_ZNSt11char_traitsIcE6assignERcRKc:
.LFB1154:
	push	rbp	 #
	.seh_pushreg	rbp
	mov	rbp, rsp	 #,
	.seh_setframe	rbp, 0
	.seh_endprologue
	mov	QWORD PTR 16[rbp], rcx	 # __c1, __c1
	mov	QWORD PTR 24[rbp], rdx	 # __c2, __c2
 # D:/mingw/mingw64/include/c++/15.1.0/bits/char_traits.h:352: 	__c1 = __c2;
	mov	rax, QWORD PTR 24[rbp]	 # tmp99, __c2
	movzx	edx, BYTE PTR [rax]	 # _1, *__c2_3(D)
 # D:/mingw/mingw64/include/c++/15.1.0/bits/char_traits.h:352: 	__c1 = __c2;
	mov	rax, QWORD PTR 16[rbp]	 # tmp100, __c1
	mov	BYTE PTR [rax], dl	 # *__c1_4(D), _1
 # D:/mingw/mingw64/include/c++/15.1.0/bits/char_traits.h:353:       }
	nop	
	pop	rbp	 #
	ret	
	.seh_endproc
	.section	.text$_ZNSt11char_traitsIcE2ltERKcS2_,"x"
	.linkonce discard
	.globl	_ZNSt11char_traitsIcE2ltERKcS2_
	.def	_ZNSt11char_traitsIcE2ltERKcS2_;	.scl	2;	.type	32;	.endef
	.seh_proc	_ZNSt11char_traitsIcE2ltERKcS2_
_ZNSt11char_traitsIcE2ltERKcS2_:
.LFB1156:
	push	rbp	 #
	.seh_pushreg	rbp
	mov	rbp, rsp	 #,
	.seh_setframe	rbp, 0
	.seh_endprologue
	mov	QWORD PTR 16[rbp], rcx	 # __c1, __c1
	mov	QWORD PTR 24[rbp], rdx	 # __c2, __c2
 # D:/mingw/mingw64/include/c++/15.1.0/bits/char_traits.h:363: 	return (static_cast<unsigned char>(__c1)
	mov	rax, QWORD PTR 16[rbp]	 # tmp104, __c1
	movzx	eax, BYTE PTR [rax]	 # _1, *__c1_6(D)
 # D:/mingw/mingw64/include/c++/15.1.0/bits/char_traits.h:363: 	return (static_cast<unsigned char>(__c1)
	mov	edx, eax	 # _2, _1
 # D:/mingw/mingw64/include/c++/15.1.0/bits/char_traits.h:364: 		< static_cast<unsigned char>(__c2));
	mov	rax, QWORD PTR 24[rbp]	 # tmp105, __c2
	movzx	eax, BYTE PTR [rax]	 # _3, *__c2_7(D)
 # D:/mingw/mingw64/include/c++/15.1.0/bits/char_traits.h:364: 		< static_cast<unsigned char>(__c2));
	cmp	dl, al	 # _2, _4
	setb	al	 #, _8
 # D:/mingw/mingw64/include/c++/15.1.0/bits/char_traits.h:365:       }
	pop	rbp	 #
	ret	
	.seh_endproc
	.section	.text$_ZNSt11char_traitsIcE7compareEPKcS2_y,"x"
	.linkonce discard
	.globl	_ZNSt11char_traitsIcE7compareEPKcS2_y
	.def	_ZNSt11char_traitsIcE7compareEPKcS2_y;	.scl	2;	.type	32;	.endef
	.seh_proc	_ZNSt11char_traitsIcE7compareEPKcS2_y
_ZNSt11char_traitsIcE7compareEPKcS2_y:
.LFB1157:
	push	rbp	 #
	.seh_pushreg	rbp
	mov	rbp, rsp	 #,
	.seh_setframe	rbp, 0
	sub	rsp, 48	 #,
	.seh_stackalloc	48
	.seh_endprologue
	mov	QWORD PTR 16[rbp], rcx	 # __s1, __s1
	mov	QWORD PTR 24[rbp], rdx	 # __s2, __s2
	mov	QWORD PTR 32[rbp], r8	 # __n, __n
 # D:/mingw/mingw64/include/c++/15.1.0/bits/char_traits.h:370: 	if (__n == 0)
	cmp	QWORD PTR 32[rbp], 0	 # __n,
	jne	.L12	 #,
 # D:/mingw/mingw64/include/c++/15.1.0/bits/char_traits.h:371: 	  return 0;
	mov	eax, 0	 # _6,
	jmp	.L13	 #
.L12:
 # D:/mingw/mingw64/include/c++/15.1.0/x86_64-w64-mingw32/bits/c++config.h:589:     return __builtin_is_constant_evaluated();
	mov	eax, 0	 # D.136279,
 # D:/mingw/mingw64/include/c++/15.1.0/bits/char_traits.h:373: 	if (std::__is_constant_evaluated())
	test	al, al	 # D.136279
	je	.L15	 #,
 # D:/mingw/mingw64/include/c++/15.1.0/bits/char_traits.h:375: 	    for (size_t __i = 0; __i < __n; ++__i)
	mov	QWORD PTR -8[rbp], 0	 # __i,
 # D:/mingw/mingw64/include/c++/15.1.0/bits/char_traits.h:375: 	    for (size_t __i = 0; __i < __n; ++__i)
	jmp	.L16	 #
.L19:
 # D:/mingw/mingw64/include/c++/15.1.0/bits/char_traits.h:376: 	      if (lt(__s1[__i], __s2[__i]))
	mov	rdx, QWORD PTR 24[rbp]	 # tmp107, __s2
	mov	rax, QWORD PTR -8[rbp]	 # tmp108, __i
	add	rdx, rax	 # _1, tmp108
 # D:/mingw/mingw64/include/c++/15.1.0/bits/char_traits.h:376: 	      if (lt(__s1[__i], __s2[__i]))
	mov	rcx, QWORD PTR 16[rbp]	 # tmp109, __s1
	mov	rax, QWORD PTR -8[rbp]	 # tmp110, __i
	add	rax, rcx	 # _2, tmp109
 # D:/mingw/mingw64/include/c++/15.1.0/bits/char_traits.h:376: 	      if (lt(__s1[__i], __s2[__i]))
	mov	rcx, rax	 #, _2
	call	_ZNSt11char_traitsIcE2ltERKcS2_	 #
 # D:/mingw/mingw64/include/c++/15.1.0/bits/char_traits.h:376: 	      if (lt(__s1[__i], __s2[__i]))
	test	al, al	 # retval.19_18
	je	.L17	 #,
 # D:/mingw/mingw64/include/c++/15.1.0/bits/char_traits.h:377: 		return -1;
	mov	eax, -1	 # _6,
	jmp	.L13	 #
.L17:
 # D:/mingw/mingw64/include/c++/15.1.0/bits/char_traits.h:378: 	      else if (lt(__s2[__i], __s1[__i]))
	mov	rdx, QWORD PTR 16[rbp]	 # tmp111, __s1
	mov	rax, QWORD PTR -8[rbp]	 # tmp112, __i
	add	rdx, rax	 # _3, tmp112
 # D:/mingw/mingw64/include/c++/15.1.0/bits/char_traits.h:378: 	      else if (lt(__s2[__i], __s1[__i]))
	mov	rcx, QWORD PTR 24[rbp]	 # tmp113, __s2
	mov	rax, QWORD PTR -8[rbp]	 # tmp114, __i
	add	rax, rcx	 # _4, tmp113
 # D:/mingw/mingw64/include/c++/15.1.0/bits/char_traits.h:378: 	      else if (lt(__s2[__i], __s1[__i]))
	mov	rcx, rax	 #, _4
	call	_ZNSt11char_traitsIcE2ltERKcS2_	 #
 # D:/mingw/mingw64/include/c++/15.1.0/bits/char_traits.h:378: 	      else if (lt(__s2[__i], __s1[__i]))
	test	al, al	 # retval.20_20
	je	.L18	 #,
 # D:/mingw/mingw64/include/c++/15.1.0/bits/char_traits.h:379: 		return 1;
	mov	eax, 1	 # _6,
	jmp	.L13	 #
.L18:
 # D:/mingw/mingw64/include/c++/15.1.0/bits/char_traits.h:375: 	    for (size_t __i = 0; __i < __n; ++__i)
	add	QWORD PTR -8[rbp], 1	 # __i,
.L16:
 # D:/mingw/mingw64/include/c++/15.1.0/bits/char_traits.h:375: 	    for (size_t __i = 0; __i < __n; ++__i)
	mov	rax, QWORD PTR -8[rbp]	 # tmp115, __i
	cmp	rax, QWORD PTR 32[rbp]	 # tmp115, __n
	jb	.L19	 #,
 # D:/mingw/mingw64/include/c++/15.1.0/bits/char_traits.h:380: 	    return 0;
	mov	eax, 0	 # _6,
	jmp	.L13	 #
.L15:
 # D:/mingw/mingw64/include/c++/15.1.0/bits/char_traits.h:383: 	return __builtin_memcmp(__s1, __s2, __n);
	mov	rcx, QWORD PTR 32[rbp]	 # tmp118, __n
	mov	rdx, QWORD PTR 24[rbp]	 # tmp119, __s2
	mov	rax, QWORD PTR 16[rbp]	 # tmp120, __s1
	mov	r8, rcx	 #, tmp118
	mov	rcx, rax	 #, tmp120
	call	memcmp	 #
 # D:/mingw/mingw64/include/c++/15.1.0/bits/char_traits.h:383: 	return __builtin_memcmp(__s1, __s2, __n);
	nop	
.L13:
 # D:/mingw/mingw64/include/c++/15.1.0/bits/char_traits.h:384:       }
	add	rsp, 48	 #,
	pop	rbp	 #
	ret	
	.seh_endproc
	.section	.text$_ZNSt11char_traitsIcE6lengthEPKc,"x"
	.linkonce discard
	.globl	_ZNSt11char_traitsIcE6lengthEPKc
	.def	_ZNSt11char_traitsIcE6lengthEPKc;	.scl	2;	.type	32;	.endef
	.seh_proc	_ZNSt11char_traitsIcE6lengthEPKc
_ZNSt11char_traitsIcE6lengthEPKc:
.LFB1158:
	push	rbp	 #
	.seh_pushreg	rbp
	mov	rbp, rsp	 #,
	.seh_setframe	rbp, 0
	sub	rsp, 32	 #,
	.seh_stackalloc	32
	.seh_endprologue
	mov	QWORD PTR 16[rbp], rcx	 # __s, __s
 # D:/mingw/mingw64/include/c++/15.1.0/x86_64-w64-mingw32/bits/c++config.h:589:     return __builtin_is_constant_evaluated();
	mov	eax, 0	 # D.136318,
 # D:/mingw/mingw64/include/c++/15.1.0/bits/char_traits.h:390: 	if (std::__is_constant_evaluated())
	test	al, al	 # D.136318
	je	.L22	 #,
 # D:/mingw/mingw64/include/c++/15.1.0/bits/char_traits.h:391: 	  return __gnu_cxx::char_traits<char_type>::length(__s);
	mov	rax, QWORD PTR 16[rbp]	 # tmp101, __s
	mov	rcx, rax	 #, tmp101
	call	_ZN9__gnu_cxx11char_traitsIcE6lengthEPKc	 #
 # D:/mingw/mingw64/include/c++/15.1.0/bits/char_traits.h:391: 	  return __gnu_cxx::char_traits<char_type>::length(__s);
	jmp	.L23	 #
.L22:
 # D:/mingw/mingw64/include/c++/15.1.0/bits/char_traits.h:393: 	return __builtin_strlen(__s);
	mov	rax, QWORD PTR 16[rbp]	 # tmp103, __s
	mov	rcx, rax	 #, tmp103
	call	strlen	 #
 # D:/mingw/mingw64/include/c++/15.1.0/bits/char_traits.h:393: 	return __builtin_strlen(__s);
	nop	
.L23:
 # D:/mingw/mingw64/include/c++/15.1.0/bits/char_traits.h:394:       }
	add	rsp, 32	 #,
	pop	rbp	 #
	ret	
	.seh_endproc
	.section	.text$_ZNSt11char_traitsIcE4moveEPcPKcy,"x"
	.linkonce discard
	.globl	_ZNSt11char_traitsIcE4moveEPcPKcy
	.def	_ZNSt11char_traitsIcE4moveEPcPKcy;	.scl	2;	.type	32;	.endef
	.seh_proc	_ZNSt11char_traitsIcE4moveEPcPKcy
_ZNSt11char_traitsIcE4moveEPcPKcy:
.LFB1160:
	push	rbp	 #
	.seh_pushreg	rbp
	mov	rbp, rsp	 #,
	.seh_setframe	rbp, 0
	sub	rsp, 32	 #,
	.seh_stackalloc	32
	.seh_endprologue
	mov	QWORD PTR 16[rbp], rcx	 # __s1, __s1
	mov	QWORD PTR 24[rbp], rdx	 # __s2, __s2
	mov	QWORD PTR 32[rbp], r8	 # __n, __n
 # D:/mingw/mingw64/include/c++/15.1.0/bits/char_traits.h:411: 	if (__n == 0)
	cmp	QWORD PTR 32[rbp], 0	 # __n,
	jne	.L25	 #,
 # D:/mingw/mingw64/include/c++/15.1.0/bits/char_traits.h:412: 	  return __s1;
	mov	rax, QWORD PTR 16[rbp]	 # _1, __s1
	jmp	.L26	 #
.L25:
 # D:/mingw/mingw64/include/c++/15.1.0/bits/char_traits.h:417: 	return static_cast<char_type*>(__builtin_memmove(__s1, __s2, __n));
	mov	rcx, QWORD PTR 32[rbp]	 # tmp102, __n
	mov	rdx, QWORD PTR 24[rbp]	 # tmp103, __s2
	mov	rax, QWORD PTR 16[rbp]	 # tmp104, __s1
	mov	r8, rcx	 #, tmp102
	mov	rcx, rax	 #, tmp104
	call	memmove	 #
 # D:/mingw/mingw64/include/c++/15.1.0/bits/char_traits.h:417: 	return static_cast<char_type*>(__builtin_memmove(__s1, __s2, __n));
	nop	
.L26:
 # D:/mingw/mingw64/include/c++/15.1.0/bits/char_traits.h:418:       }
	add	rsp, 32	 #,
	pop	rbp	 #
	ret	
	.seh_endproc
	.section	.text$_ZNSt11char_traitsIcE4copyEPcPKcy,"x"
	.linkonce discard
	.globl	_ZNSt11char_traitsIcE4copyEPcPKcy
	.def	_ZNSt11char_traitsIcE4copyEPcPKcy;	.scl	2;	.type	32;	.endef
	.seh_proc	_ZNSt11char_traitsIcE4copyEPcPKcy
_ZNSt11char_traitsIcE4copyEPcPKcy:
.LFB1161:
	push	rbp	 #
	.seh_pushreg	rbp
	mov	rbp, rsp	 #,
	.seh_setframe	rbp, 0
	sub	rsp, 32	 #,
	.seh_stackalloc	32
	.seh_endprologue
	mov	QWORD PTR 16[rbp], rcx	 # __s1, __s1
	mov	QWORD PTR 24[rbp], rdx	 # __s2, __s2
	mov	QWORD PTR 32[rbp], r8	 # __n, __n
 # D:/mingw/mingw64/include/c++/15.1.0/bits/char_traits.h:423: 	if (__n == 0)
	cmp	QWORD PTR 32[rbp], 0	 # __n,
	jne	.L28	 #,
 # D:/mingw/mingw64/include/c++/15.1.0/bits/char_traits.h:424: 	  return __s1;
	mov	rax, QWORD PTR 16[rbp]	 # _1, __s1
	jmp	.L29	 #
.L28:
 # D:/mingw/mingw64/include/c++/15.1.0/bits/char_traits.h:429: 	return static_cast<char_type*>(__builtin_memcpy(__s1, __s2, __n));
	mov	rdx, QWORD PTR 16[rbp]	 # tmp100, __s1
	mov	rax, QWORD PTR 24[rbp]	 # tmp101, __s2
	mov	rcx, rdx	 # tmp103, tmp100
	mov	rdx, rax	 # tmp104, tmp101
	mov	rax, QWORD PTR 32[rbp]	 # tmp105, __n
	mov	r8, rax	 #, tmp105
	call	memcpy	 #
 # D:/mingw/mingw64/include/c++/15.1.0/bits/char_traits.h:429: 	return static_cast<char_type*>(__builtin_memcpy(__s1, __s2, __n));
	nop	
.L29:
 # D:/mingw/mingw64/include/c++/15.1.0/bits/char_traits.h:430:       }
	add	rsp, 32	 #,
	pop	rbp	 #
	ret	
	.seh_endproc
	.section	.text$_ZNSt11char_traitsIcE6assignEPcyc,"x"
	.linkonce discard
	.globl	_ZNSt11char_traitsIcE6assignEPcyc
	.def	_ZNSt11char_traitsIcE6assignEPcyc;	.scl	2;	.type	32;	.endef
	.seh_proc	_ZNSt11char_traitsIcE6assignEPcyc
_ZNSt11char_traitsIcE6assignEPcyc:
.LFB1162:
	push	rbp	 #
	.seh_pushreg	rbp
	mov	rbp, rsp	 #,
	.seh_setframe	rbp, 0
	sub	rsp, 32	 #,
	.seh_stackalloc	32
	.seh_endprologue
	mov	QWORD PTR 16[rbp], rcx	 # __s, __s
	mov	QWORD PTR 24[rbp], rdx	 # __n, __n
	mov	eax, r8d	 # tmp101, __a
	mov	BYTE PTR 32[rbp], al	 # __a, tmp102
 # D:/mingw/mingw64/include/c++/15.1.0/bits/char_traits.h:435: 	if (__n == 0)
	cmp	QWORD PTR 24[rbp], 0	 # __n,
	jne	.L31	 #,
 # D:/mingw/mingw64/include/c++/15.1.0/bits/char_traits.h:436: 	  return __s;
	mov	rax, QWORD PTR 16[rbp]	 # _2, __s
	jmp	.L32	 #
.L31:
 # D:/mingw/mingw64/include/c++/15.1.0/bits/char_traits.h:441: 	return static_cast<char_type*>(__builtin_memset(__s, __a, __n));
	movsx	edx, BYTE PTR 32[rbp]	 # _1, __a
	mov	rcx, QWORD PTR 24[rbp]	 # tmp105, __n
	mov	rax, QWORD PTR 16[rbp]	 # tmp106, __s
	mov	r8, rcx	 #, tmp105
	mov	rcx, rax	 #, tmp106
	call	memset	 #
 # D:/mingw/mingw64/include/c++/15.1.0/bits/char_traits.h:441: 	return static_cast<char_type*>(__builtin_memset(__s, __a, __n));
	nop	
.L32:
 # D:/mingw/mingw64/include/c++/15.1.0/bits/char_traits.h:442:       }
	add	rsp, 32	 #,
	pop	rbp	 #
	ret	
	.seh_endproc
	.section	.text$_ZNKSt4hashIiEclEi,"x"
	.linkonce discard
	.align 2
	.globl	_ZNKSt4hashIiEclEi
	.def	_ZNKSt4hashIiEclEi;	.scl	2;	.type	32;	.endef
	.seh_proc	_ZNKSt4hashIiEclEi
_ZNKSt4hashIiEclEi:
.LFB1517:
	push	rbp	 #
	.seh_pushreg	rbp
	mov	rbp, rsp	 #,
	.seh_setframe	rbp, 0
	.seh_endprologue
	mov	QWORD PTR 16[rbp], rcx	 # this, this
	mov	DWORD PTR 24[rbp], edx	 # __val, __val
 # D:/mingw/mingw64/include/c++/15.1.0/bits/functional_hash.h:157:   _Cxx_hashtable_define_trivial_hash(int)
	mov	eax, DWORD PTR 24[rbp]	 # tmp100, __val
	cdqe
 # D:/mingw/mingw64/include/c++/15.1.0/bits/functional_hash.h:157:   _Cxx_hashtable_define_trivial_hash(int)
	pop	rbp	 #
	ret	
	.seh_endproc
	.section	.text$_ZNSt10_Hash_impl4hashEPKvyy,"x"
	.linkonce discard
	.globl	_ZNSt10_Hash_impl4hashEPKvyy
	.def	_ZNSt10_Hash_impl4hashEPKvyy;	.scl	2;	.type	32;	.endef
	.seh_proc	_ZNSt10_Hash_impl4hashEPKvyy
_ZNSt10_Hash_impl4hashEPKvyy:
.LFB1526:
	push	rbp	 #
	.seh_pushreg	rbp
	mov	rbp, rsp	 #,
	.seh_setframe	rbp, 0
	sub	rsp, 32	 #,
	.seh_stackalloc	32
	.seh_endprologue
	mov	QWORD PTR 16[rbp], rcx	 # __ptr, __ptr
	mov	QWORD PTR 24[rbp], rdx	 # __clength, __clength
	mov	QWORD PTR 32[rbp], r8	 # __seed, __seed
 # D:/mingw/mingw64/include/c++/15.1.0/bits/functional_hash.h:209:     { return _Hash_bytes(__ptr, __clength, __seed); }
	mov	rcx, QWORD PTR 32[rbp]	 # tmp100, __seed
	mov	rdx, QWORD PTR 24[rbp]	 # tmp101, __clength
	mov	rax, QWORD PTR 16[rbp]	 # tmp102, __ptr
	mov	r8, rcx	 #, tmp100
	mov	rcx, rax	 #, tmp102
	call	_ZSt11_Hash_bytesPKvyy	 #
 # D:/mingw/mingw64/include/c++/15.1.0/bits/functional_hash.h:209:     { return _Hash_bytes(__ptr, __clength, __seed); }
	add	rsp, 32	 #,
	pop	rbp	 #
	ret	
	.seh_endproc
	.section .rdata,"dr"
.LC1:
	.ascii "stod\0"
	.section	.text$_ZNSt7__cxx114stodERKNS_12basic_stringIcSt11char_traitsIcESaIcEEEPy,"x"
	.linkonce discard
	.globl	_ZNSt7__cxx114stodERKNS_12basic_stringIcSt11char_traitsIcESaIcEEEPy
	.def	_ZNSt7__cxx114stodERKNS_12basic_stringIcSt11char_traitsIcESaIcEEEPy;	.scl	2;	.type	32;	.endef
	.seh_proc	_ZNSt7__cxx114stodERKNS_12basic_stringIcSt11char_traitsIcESaIcEEEPy
_ZNSt7__cxx114stodERKNS_12basic_stringIcSt11char_traitsIcESaIcEEEPy:
.LFB1845:
	push	rbp	 #
	.seh_pushreg	rbp
	mov	rbp, rsp	 #,
	.seh_setframe	rbp, 0
	sub	rsp, 32	 #,
	.seh_stackalloc	32
	.seh_endprologue
	mov	QWORD PTR 16[rbp], rcx	 # __str, __str
	mov	QWORD PTR 24[rbp], rdx	 # __idx, __idx
 # D:/mingw/mingw64/include/c++/15.1.0/bits/basic_string.h:4490:   { return __gnu_cxx::__stoa(&std::strtod, "stod", __str.c_str(), __idx); }
	mov	rax, QWORD PTR 16[rbp]	 # tmp101, __str
	mov	rcx, rax	 #, tmp101
	call	_ZNKSt7__cxx1112basic_stringIcSt11char_traitsIcESaIcEE5c_strEv	 #
	mov	rdx, rax	 # _1,
 # D:/mingw/mingw64/include/c++/15.1.0/bits/basic_string.h:4490:   { return __gnu_cxx::__stoa(&std::strtod, "stod", __str.c_str(), __idx); }
	mov	rcx, QWORD PTR 24[rbp]	 # tmp102, __idx
	lea	rax, .LC1[rip]	 # tmp103,
	lea	r8, strtod[rip]	 # tmp105,
	mov	r10, r8	 # tmp104, tmp105
	mov	r9, rcx	 #, tmp102
	mov	r8, rdx	 #, _1
	mov	rdx, rax	 #, tmp103
	mov	rcx, r10	 #, tmp104
	call	_ZN9__gnu_cxx6__stoaIddcJEEET0_PFT_PKT1_PPS3_DpT2_EPKcS5_PyS9_	 #
 # D:/mingw/mingw64/include/c++/15.1.0/bits/basic_string.h:4490:   { return __gnu_cxx::__stoa(&std::strtod, "stod", __str.c_str(), __idx); }
	add	rsp, 32	 #,
	pop	rbp	 #
	ret	
	.seh_endproc
	.section	.text$_ZStanSt13_Ios_FmtflagsS_,"x"
	.linkonce discard
	.globl	_ZStanSt13_Ios_FmtflagsS_
	.def	_ZStanSt13_Ios_FmtflagsS_;	.scl	2;	.type	32;	.endef
	.seh_proc	_ZStanSt13_Ios_FmtflagsS_
_ZStanSt13_Ios_FmtflagsS_:
.LFB2264:
	push	rbp	 #
	.seh_pushreg	rbp
	mov	rbp, rsp	 #,
	.seh_setframe	rbp, 0
	.seh_endprologue
	mov	DWORD PTR 16[rbp], ecx	 # __a, __a
	mov	DWORD PTR 24[rbp], edx	 # __b, __b
 # D:/mingw/mingw64/include/c++/15.1.0/bits/ios_base.h:87:   { return _Ios_Fmtflags(static_cast<int>(__a) & static_cast<int>(__b)); }
	mov	eax, DWORD PTR 16[rbp]	 # tmp100, __a
	and	eax, DWORD PTR 24[rbp]	 # _3, __b
 # D:/mingw/mingw64/include/c++/15.1.0/bits/ios_base.h:87:   { return _Ios_Fmtflags(static_cast<int>(__a) & static_cast<int>(__b)); }
	pop	rbp	 #
	ret	
	.seh_endproc
	.section	.text$_ZStorSt13_Ios_FmtflagsS_,"x"
	.linkonce discard
	.globl	_ZStorSt13_Ios_FmtflagsS_
	.def	_ZStorSt13_Ios_FmtflagsS_;	.scl	2;	.type	32;	.endef
	.seh_proc	_ZStorSt13_Ios_FmtflagsS_
_ZStorSt13_Ios_FmtflagsS_:
.LFB2265:
	push	rbp	 #
	.seh_pushreg	rbp
	mov	rbp, rsp	 #,
	.seh_setframe	rbp, 0
	.seh_endprologue
	mov	DWORD PTR 16[rbp], ecx	 # __a, __a
	mov	DWORD PTR 24[rbp], edx	 # __b, __b
 # D:/mingw/mingw64/include/c++/15.1.0/bits/ios_base.h:92:   { return _Ios_Fmtflags(static_cast<int>(__a) | static_cast<int>(__b)); }
	mov	eax, DWORD PTR 16[rbp]	 # tmp100, __a
	or	eax, DWORD PTR 24[rbp]	 # _3, __b
 # D:/mingw/mingw64/include/c++/15.1.0/bits/ios_base.h:92:   { return _Ios_Fmtflags(static_cast<int>(__a) | static_cast<int>(__b)); }
	pop	rbp	 #
	ret	
	.seh_endproc
	.section	.text$_ZStcoSt13_Ios_Fmtflags,"x"
	.linkonce discard
	.globl	_ZStcoSt13_Ios_Fmtflags
	.def	_ZStcoSt13_Ios_Fmtflags;	.scl	2;	.type	32;	.endef
	.seh_proc	_ZStcoSt13_Ios_Fmtflags
_ZStcoSt13_Ios_Fmtflags:
.LFB2267:
	push	rbp	 #
	.seh_pushreg	rbp
	mov	rbp, rsp	 #,
	.seh_setframe	rbp, 0
	.seh_endprologue
	mov	DWORD PTR 16[rbp], ecx	 # __a, __a
 # D:/mingw/mingw64/include/c++/15.1.0/bits/ios_base.h:102:   { return _Ios_Fmtflags(~static_cast<int>(__a)); }
	mov	eax, DWORD PTR 16[rbp]	 # tmp100, __a
	not	eax	 # _2
 # D:/mingw/mingw64/include/c++/15.1.0/bits/ios_base.h:102:   { return _Ios_Fmtflags(~static_cast<int>(__a)); }
	pop	rbp	 #
	ret	
	.seh_endproc
	.section	.text$_ZStoRRSt13_Ios_FmtflagsS_,"x"
	.linkonce discard
	.globl	_ZStoRRSt13_Ios_FmtflagsS_
	.def	_ZStoRRSt13_Ios_FmtflagsS_;	.scl	2;	.type	32;	.endef
	.seh_proc	_ZStoRRSt13_Ios_FmtflagsS_
_ZStoRRSt13_Ios_FmtflagsS_:
.LFB2268:
	push	rbp	 #
	.seh_pushreg	rbp
	mov	rbp, rsp	 #,
	.seh_setframe	rbp, 0
	sub	rsp, 32	 #,
	.seh_stackalloc	32
	.seh_endprologue
	mov	QWORD PTR 16[rbp], rcx	 # __a, __a
	mov	DWORD PTR 24[rbp], edx	 # __b, __b
 # D:/mingw/mingw64/include/c++/15.1.0/bits/ios_base.h:107:   { return __a = __a | __b; }
	mov	rax, QWORD PTR 16[rbp]	 # tmp102, __a
	mov	eax, DWORD PTR [rax]	 # _1, *__a_4(D)
	mov	edx, DWORD PTR 24[rbp]	 # tmp103, __b
	mov	ecx, eax	 #, _1
	call	_ZStorSt13_Ios_FmtflagsS_	 #
 # D:/mingw/mingw64/include/c++/15.1.0/bits/ios_base.h:107:   { return __a = __a | __b; }
	mov	rdx, QWORD PTR 16[rbp]	 # tmp104, __a
	mov	DWORD PTR [rdx], eax	 # *__a_4(D), _2
 # D:/mingw/mingw64/include/c++/15.1.0/bits/ios_base.h:107:   { return __a = __a | __b; }
	mov	rax, QWORD PTR 16[rbp]	 # _8, __a
 # D:/mingw/mingw64/include/c++/15.1.0/bits/ios_base.h:107:   { return __a = __a | __b; }
	add	rsp, 32	 #,
	pop	rbp	 #
	ret	
	.seh_endproc
	.section	.text$_ZStaNRSt13_Ios_FmtflagsS_,"x"
	.linkonce discard
	.globl	_ZStaNRSt13_Ios_FmtflagsS_
	.def	_ZStaNRSt13_Ios_FmtflagsS_;	.scl	2;	.type	32;	.endef
	.seh_proc	_ZStaNRSt13_Ios_FmtflagsS_
_ZStaNRSt13_Ios_FmtflagsS_:
.LFB2269:
	push	rbp	 #
	.seh_pushreg	rbp
	mov	rbp, rsp	 #,
	.seh_setframe	rbp, 0
	sub	rsp, 32	 #,
	.seh_stackalloc	32
	.seh_endprologue
	mov	QWORD PTR 16[rbp], rcx	 # __a, __a
	mov	DWORD PTR 24[rbp], edx	 # __b, __b
 # D:/mingw/mingw64/include/c++/15.1.0/bits/ios_base.h:112:   { return __a = __a & __b; }
	mov	rax, QWORD PTR 16[rbp]	 # tmp102, __a
	mov	eax, DWORD PTR [rax]	 # _1, *__a_4(D)
	mov	edx, DWORD PTR 24[rbp]	 # tmp103, __b
	mov	ecx, eax	 #, _1
	call	_ZStanSt13_Ios_FmtflagsS_	 #
 # D:/mingw/mingw64/include/c++/15.1.0/bits/ios_base.h:112:   { return __a = __a & __b; }
	mov	rdx, QWORD PTR 16[rbp]	 # tmp104, __a
	mov	DWORD PTR [rdx], eax	 # *__a_4(D), _2
 # D:/mingw/mingw64/include/c++/15.1.0/bits/ios_base.h:112:   { return __a = __a & __b; }
	mov	rax, QWORD PTR 16[rbp]	 # _8, __a
 # D:/mingw/mingw64/include/c++/15.1.0/bits/ios_base.h:112:   { return __a = __a & __b; }
	add	rsp, 32	 #,
	pop	rbp	 #
	ret	
	.seh_endproc
	.section	.text$_ZNSt8ios_base4setfESt13_Ios_FmtflagsS0_,"x"
	.linkonce discard
	.align 2
	.globl	_ZNSt8ios_base4setfESt13_Ios_FmtflagsS0_
	.def	_ZNSt8ios_base4setfESt13_Ios_FmtflagsS0_;	.scl	2;	.type	32;	.endef
	.seh_proc	_ZNSt8ios_base4setfESt13_Ios_FmtflagsS0_
_ZNSt8ios_base4setfESt13_Ios_FmtflagsS0_:
.LFB2298:
	push	rbp	 #
	.seh_pushreg	rbp
	mov	rbp, rsp	 #,
	.seh_setframe	rbp, 0
	sub	rsp, 48	 #,
	.seh_stackalloc	48
	.seh_endprologue
	mov	QWORD PTR 16[rbp], rcx	 # this, this
	mov	DWORD PTR 24[rbp], edx	 # __fmtfl, __fmtfl
	mov	DWORD PTR 32[rbp], r8d	 # __mask, __mask
 # D:/mingw/mingw64/include/c++/15.1.0/bits/ios_base.h:740:       fmtflags __old = _M_flags;
	mov	rax, QWORD PTR 16[rbp]	 # tmp104, this
	mov	eax, DWORD PTR 24[rax]	 # tmp105, this_6(D)->_M_flags
	mov	DWORD PTR -4[rbp], eax	 # __old, tmp105
 # D:/mingw/mingw64/include/c++/15.1.0/bits/ios_base.h:741:       _M_flags &= ~__mask;
	mov	eax, DWORD PTR 32[rbp]	 # tmp106, __mask
	mov	ecx, eax	 #, tmp106
	call	_ZStcoSt13_Ios_Fmtflags	 #
	mov	edx, eax	 # _1,
 # D:/mingw/mingw64/include/c++/15.1.0/bits/ios_base.h:741:       _M_flags &= ~__mask;
	mov	rax, QWORD PTR 16[rbp]	 # tmp107, this
	add	rax, 24	 # _2,
 # D:/mingw/mingw64/include/c++/15.1.0/bits/ios_base.h:741:       _M_flags &= ~__mask;
	mov	rcx, rax	 #, _2
	call	_ZStaNRSt13_Ios_FmtflagsS_	 #
 # D:/mingw/mingw64/include/c++/15.1.0/bits/ios_base.h:742:       _M_flags |= (__fmtfl & __mask);
	mov	edx, DWORD PTR 32[rbp]	 # tmp108, __mask
	mov	eax, DWORD PTR 24[rbp]	 # tmp109, __fmtfl
	mov	ecx, eax	 #, tmp109
	call	_ZStanSt13_Ios_FmtflagsS_	 #
	mov	edx, eax	 # _3,
 # D:/mingw/mingw64/include/c++/15.1.0/bits/ios_base.h:742:       _M_flags |= (__fmtfl & __mask);
	mov	rax, QWORD PTR 16[rbp]	 # tmp110, this
	add	rax, 24	 # _4,
 # D:/mingw/mingw64/include/c++/15.1.0/bits/ios_base.h:742:       _M_flags |= (__fmtfl & __mask);
	mov	rcx, rax	 #, _4
	call	_ZStoRRSt13_Ios_FmtflagsS_	 #
 # D:/mingw/mingw64/include/c++/15.1.0/bits/ios_base.h:743:       return __old;
	mov	eax, DWORD PTR -4[rbp]	 # _14, __old
 # D:/mingw/mingw64/include/c++/15.1.0/bits/ios_base.h:744:     }
	add	rsp, 48	 #,
	pop	rbp	 #
	ret	
	.seh_endproc
	.section	.text$_ZNSt8ios_base9precisionEx,"x"
	.linkonce discard
	.align 2
	.globl	_ZNSt8ios_base9precisionEx
	.def	_ZNSt8ios_base9precisionEx;	.scl	2;	.type	32;	.endef
	.seh_proc	_ZNSt8ios_base9precisionEx
_ZNSt8ios_base9precisionEx:
.LFB2301:
	push	rbp	 #
	.seh_pushreg	rbp
	mov	rbp, rsp	 #,
	.seh_setframe	rbp, 0
	sub	rsp, 16	 #,
	.seh_stackalloc	16
	.seh_endprologue
	mov	QWORD PTR 16[rbp], rcx	 # this, this
	mov	QWORD PTR 24[rbp], rdx	 # __prec, __prec
 # D:/mingw/mingw64/include/c++/15.1.0/bits/ios_base.h:776:       streamsize __old = _M_precision;
	mov	rax, QWORD PTR 16[rbp]	 # tmp100, this
	mov	rax, QWORD PTR 8[rax]	 # tmp101, this_2(D)->_M_precision
	mov	QWORD PTR -8[rbp], rax	 # __old, tmp101
 # D:/mingw/mingw64/include/c++/15.1.0/bits/ios_base.h:777:       _M_precision = __prec;
	mov	rax, QWORD PTR 16[rbp]	 # tmp102, this
	mov	rdx, QWORD PTR 24[rbp]	 # tmp103, __prec
	mov	QWORD PTR 8[rax], rdx	 # this_2(D)->_M_precision, tmp103
 # D:/mingw/mingw64/include/c++/15.1.0/bits/ios_base.h:778:       return __old;
	mov	rax, QWORD PTR -8[rbp]	 # _6, __old
 # D:/mingw/mingw64/include/c++/15.1.0/bits/ios_base.h:779:     }
	add	rsp, 16	 #,
	pop	rbp	 #
	ret	
	.seh_endproc
	.section	.text$_ZSt13__complex_absCd,"x"
	.linkonce discard
	.globl	_ZSt13__complex_absCd
	.def	_ZSt13__complex_absCd;	.scl	2;	.type	32;	.endef
	.seh_proc	_ZSt13__complex_absCd
_ZSt13__complex_absCd:
.LFB2782:
	push	rbp	 #
	.seh_pushreg	rbp
	push	rbx	 #
	.seh_pushreg	rbx
	sub	rsp, 72	 #,
	.seh_stackalloc	72
	lea	rbp, 64[rsp]	 #,
	.seh_setframe	rbp, 64
	.seh_endprologue
	mov	rbx, rcx	 # tmp100,
	movsd	xmm0, QWORD PTR [rbx]	 # tmp101, __z
	movsd	QWORD PTR -16[rbp], xmm0	 # __z, tmp101
	movsd	xmm0, QWORD PTR 8[rbx]	 # tmp102, __z
	movsd	QWORD PTR -8[rbp], xmm0	 # __z, tmp102
 # D:/mingw/mingw64/include/c++/15.1.0/complex:956:   __complex_abs(__complex__ double __z) { return __builtin_cabs(__z); }
	movsd	xmm0, QWORD PTR -16[rbp]	 # tmp103, __z
	movsd	QWORD PTR -32[rbp], xmm0	 #, tmp103
	movsd	xmm0, QWORD PTR -8[rbp]	 # tmp104, __z
	movsd	QWORD PTR -24[rbp], xmm0	 #, tmp104
	lea	rax, -32[rbp]	 # tmp105,
	mov	rcx, rax	 #, tmp105
	call	cabs	 #
 # D:/mingw/mingw64/include/c++/15.1.0/complex:956:   __complex_abs(__complex__ double __z) { return __builtin_cabs(__z); }
	add	rsp, 72	 #,
	pop	rbx	 #
	pop	rbp	 #
	ret	
	.seh_endproc
	.section	.text$_ZSt13__complex_cosCd,"x"
	.linkonce discard
	.globl	_ZSt13__complex_cosCd
	.def	_ZSt13__complex_cosCd;	.scl	2;	.type	32;	.endef
	.seh_proc	_ZSt13__complex_cosCd
_ZSt13__complex_cosCd:
.LFB2797:
	push	rbp	 #
	.seh_pushreg	rbp
	push	rbx	 #
	.seh_pushreg	rbx
	sub	rsp, 104	 #,
	.seh_stackalloc	104
	lea	rbp, 96[rsp]	 #,
	.seh_setframe	rbp, 96
	.seh_endprologue
	mov	QWORD PTR 32[rbp], rcx	 # .result_ptr, .result_ptr
	mov	rbx, rdx	 # tmp102,
	movsd	xmm0, QWORD PTR [rbx]	 # tmp103, __z
	movsd	QWORD PTR -32[rbp], xmm0	 # __z, tmp103
	movsd	xmm0, QWORD PTR 8[rbx]	 # tmp104, __z
	movsd	QWORD PTR -24[rbp], xmm0	 # __z, tmp104
	movsd	xmm0, QWORD PTR -32[rbp]	 # tmp105, __z
	movsd	QWORD PTR -8[rbp], xmm0	 # __z$real, tmp105
	movsd	xmm0, QWORD PTR -24[rbp]	 # tmp106, __z
	movsd	QWORD PTR -16[rbp], xmm0	 # __z$imag, tmp106
 # D:/mingw/mingw64/include/c++/15.1.0/complex:1067:   __complex_cos(__complex__ double __z) { return __builtin_ccos(__z); }
	lea	rax, -48[rbp]	 # tmp107,
	movsd	xmm0, QWORD PTR -32[rbp]	 # tmp108, __z
	movsd	QWORD PTR -64[rbp], xmm0	 #, tmp108
	movsd	xmm0, QWORD PTR -24[rbp]	 # tmp109, __z
	movsd	QWORD PTR -56[rbp], xmm0	 #, tmp109
	lea	rdx, -64[rbp]	 # tmp110,
	mov	rcx, rax	 #, tmp107
	call	ccos	 #
	movsd	xmm1, QWORD PTR -48[rbp]	 # _1,
	movsd	xmm0, QWORD PTR -40[rbp]	 # _1,
 # D:/mingw/mingw64/include/c++/15.1.0/complex:1067:   __complex_cos(__complex__ double __z) { return __builtin_ccos(__z); }
	mov	rax, QWORD PTR 32[rbp]	 # tmp111, .result_ptr
	movsd	QWORD PTR [rax], xmm1	 # REALPART_EXPR <<retval>>, _7
	mov	rax, QWORD PTR 32[rbp]	 # tmp112, .result_ptr
	movsd	QWORD PTR 8[rax], xmm0	 # IMAGPART_EXPR <<retval>>, _8
 # D:/mingw/mingw64/include/c++/15.1.0/complex:1067:   __complex_cos(__complex__ double __z) { return __builtin_ccos(__z); }
	mov	rax, QWORD PTR 32[rbp]	 #, .result_ptr
	add	rsp, 104	 #,
	pop	rbx	 #
	pop	rbp	 #
	ret	
	.seh_endproc
	.section	.text$_ZSt13__complex_expCd,"x"
	.linkonce discard
	.globl	_ZSt13__complex_expCd
	.def	_ZSt13__complex_expCd;	.scl	2;	.type	32;	.endef
	.seh_proc	_ZSt13__complex_expCd
_ZSt13__complex_expCd:
.LFB2807:
	push	rbp	 #
	.seh_pushreg	rbp
	push	rbx	 #
	.seh_pushreg	rbx
	sub	rsp, 104	 #,
	.seh_stackalloc	104
	lea	rbp, 96[rsp]	 #,
	.seh_setframe	rbp, 96
	.seh_endprologue
	mov	QWORD PTR 32[rbp], rcx	 # .result_ptr, .result_ptr
	mov	rbx, rdx	 # tmp102,
	movsd	xmm0, QWORD PTR [rbx]	 # tmp103, __z
	movsd	QWORD PTR -32[rbp], xmm0	 # __z, tmp103
	movsd	xmm0, QWORD PTR 8[rbx]	 # tmp104, __z
	movsd	QWORD PTR -24[rbp], xmm0	 # __z, tmp104
	movsd	xmm0, QWORD PTR -32[rbp]	 # tmp105, __z
	movsd	QWORD PTR -8[rbp], xmm0	 # __z$real, tmp105
	movsd	xmm0, QWORD PTR -24[rbp]	 # tmp106, __z
	movsd	QWORD PTR -16[rbp], xmm0	 # __z$imag, tmp106
 # D:/mingw/mingw64/include/c++/15.1.0/complex:1123:   __complex_exp(__complex__ double __z) { return __builtin_cexp(__z); }
	lea	rax, -48[rbp]	 # tmp107,
	movsd	xmm0, QWORD PTR -32[rbp]	 # tmp108, __z
	movsd	QWORD PTR -64[rbp], xmm0	 #, tmp108
	movsd	xmm0, QWORD PTR -24[rbp]	 # tmp109, __z
	movsd	QWORD PTR -56[rbp], xmm0	 #, tmp109
	lea	rdx, -64[rbp]	 # tmp110,
	mov	rcx, rax	 #, tmp107
	call	cexp	 #
	movsd	xmm1, QWORD PTR -48[rbp]	 # _1,
	movsd	xmm0, QWORD PTR -40[rbp]	 # _1,
 # D:/mingw/mingw64/include/c++/15.1.0/complex:1123:   __complex_exp(__complex__ double __z) { return __builtin_cexp(__z); }
	mov	rax, QWORD PTR 32[rbp]	 # tmp111, .result_ptr
	movsd	QWORD PTR [rax], xmm1	 # REALPART_EXPR <<retval>>, _7
	mov	rax, QWORD PTR 32[rbp]	 # tmp112, .result_ptr
	movsd	QWORD PTR 8[rax], xmm0	 # IMAGPART_EXPR <<retval>>, _8
 # D:/mingw/mingw64/include/c++/15.1.0/complex:1123:   __complex_exp(__complex__ double __z) { return __builtin_cexp(__z); }
	mov	rax, QWORD PTR 32[rbp]	 #, .result_ptr
	add	rsp, 104	 #,
	pop	rbx	 #
	pop	rbp	 #
	ret	
	.seh_endproc
	.section	.text$_ZSt13__complex_logCd,"x"
	.linkonce discard
	.globl	_ZSt13__complex_logCd
	.def	_ZSt13__complex_logCd;	.scl	2;	.type	32;	.endef
	.seh_proc	_ZSt13__complex_logCd
_ZSt13__complex_logCd:
.LFB2812:
	push	rbp	 #
	.seh_pushreg	rbp
	push	rbx	 #
	.seh_pushreg	rbx
	sub	rsp, 104	 #,
	.seh_stackalloc	104
	lea	rbp, 96[rsp]	 #,
	.seh_setframe	rbp, 96
	.seh_endprologue
	mov	QWORD PTR 32[rbp], rcx	 # .result_ptr, .result_ptr
	mov	rbx, rdx	 # tmp102,
	movsd	xmm0, QWORD PTR [rbx]	 # tmp103, __z
	movsd	QWORD PTR -32[rbp], xmm0	 # __z, tmp103
	movsd	xmm0, QWORD PTR 8[rbx]	 # tmp104, __z
	movsd	QWORD PTR -24[rbp], xmm0	 # __z, tmp104
	movsd	xmm0, QWORD PTR -32[rbp]	 # tmp105, __z
	movsd	QWORD PTR -8[rbp], xmm0	 # __z$real, tmp105
	movsd	xmm0, QWORD PTR -24[rbp]	 # tmp106, __z
	movsd	QWORD PTR -16[rbp], xmm0	 # __z$imag, tmp106
 # D:/mingw/mingw64/include/c++/15.1.0/complex:1150:   __complex_log(__complex__ double __z) { return __builtin_clog(__z); }
	lea	rax, -48[rbp]	 # tmp107,
	movsd	xmm0, QWORD PTR -32[rbp]	 # tmp108, __z
	movsd	QWORD PTR -64[rbp], xmm0	 #, tmp108
	movsd	xmm0, QWORD PTR -24[rbp]	 # tmp109, __z
	movsd	QWORD PTR -56[rbp], xmm0	 #, tmp109
	lea	rdx, -64[rbp]	 # tmp110,
	mov	rcx, rax	 #, tmp107
	call	clog	 #
	movsd	xmm1, QWORD PTR -48[rbp]	 # _1,
	movsd	xmm0, QWORD PTR -40[rbp]	 # _1,
 # D:/mingw/mingw64/include/c++/15.1.0/complex:1150:   __complex_log(__complex__ double __z) { return __builtin_clog(__z); }
	mov	rax, QWORD PTR 32[rbp]	 # tmp111, .result_ptr
	movsd	QWORD PTR [rax], xmm1	 # REALPART_EXPR <<retval>>, _7
	mov	rax, QWORD PTR 32[rbp]	 # tmp112, .result_ptr
	movsd	QWORD PTR 8[rax], xmm0	 # IMAGPART_EXPR <<retval>>, _8
 # D:/mingw/mingw64/include/c++/15.1.0/complex:1150:   __complex_log(__complex__ double __z) { return __builtin_clog(__z); }
	mov	rax, QWORD PTR 32[rbp]	 #, .result_ptr
	add	rsp, 104	 #,
	pop	rbx	 #
	pop	rbp	 #
	ret	
	.seh_endproc
	.section	.text$_ZSt13__complex_sinCd,"x"
	.linkonce discard
	.globl	_ZSt13__complex_sinCd
	.def	_ZSt13__complex_sinCd;	.scl	2;	.type	32;	.endef
	.seh_proc	_ZSt13__complex_sinCd
_ZSt13__complex_sinCd:
.LFB2818:
	push	rbp	 #
	.seh_pushreg	rbp
	push	rbx	 #
	.seh_pushreg	rbx
	sub	rsp, 104	 #,
	.seh_stackalloc	104
	lea	rbp, 96[rsp]	 #,
	.seh_setframe	rbp, 96
	.seh_endprologue
	mov	QWORD PTR 32[rbp], rcx	 # .result_ptr, .result_ptr
	mov	rbx, rdx	 # tmp102,
	movsd	xmm0, QWORD PTR [rbx]	 # tmp103, __z
	movsd	QWORD PTR -32[rbp], xmm0	 # __z, tmp103
	movsd	xmm0, QWORD PTR 8[rbx]	 # tmp104, __z
	movsd	QWORD PTR -24[rbp], xmm0	 # __z, tmp104
	movsd	xmm0, QWORD PTR -32[rbp]	 # tmp105, __z
	movsd	QWORD PTR -8[rbp], xmm0	 # __z$real, tmp105
	movsd	xmm0, QWORD PTR -24[rbp]	 # tmp106, __z
	movsd	QWORD PTR -16[rbp], xmm0	 # __z$imag, tmp106
 # D:/mingw/mingw64/include/c++/15.1.0/complex:1185:   __complex_sin(__complex__ double __z) { return __builtin_csin(__z); }
	lea	rax, -48[rbp]	 # tmp107,
	movsd	xmm0, QWORD PTR -32[rbp]	 # tmp108, __z
	movsd	QWORD PTR -64[rbp], xmm0	 #, tmp108
	movsd	xmm0, QWORD PTR -24[rbp]	 # tmp109, __z
	movsd	QWORD PTR -56[rbp], xmm0	 #, tmp109
	lea	rdx, -64[rbp]	 # tmp110,
	mov	rcx, rax	 #, tmp107
	call	csin	 #
	movsd	xmm1, QWORD PTR -48[rbp]	 # _1,
	movsd	xmm0, QWORD PTR -40[rbp]	 # _1,
 # D:/mingw/mingw64/include/c++/15.1.0/complex:1185:   __complex_sin(__complex__ double __z) { return __builtin_csin(__z); }
	mov	rax, QWORD PTR 32[rbp]	 # tmp111, .result_ptr
	movsd	QWORD PTR [rax], xmm1	 # REALPART_EXPR <<retval>>, _7
	mov	rax, QWORD PTR 32[rbp]	 # tmp112, .result_ptr
	movsd	QWORD PTR 8[rax], xmm0	 # IMAGPART_EXPR <<retval>>, _8
 # D:/mingw/mingw64/include/c++/15.1.0/complex:1185:   __complex_sin(__complex__ double __z) { return __builtin_csin(__z); }
	mov	rax, QWORD PTR 32[rbp]	 #, .result_ptr
	add	rsp, 104	 #,
	pop	rbx	 #
	pop	rbp	 #
	ret	
	.seh_endproc
	.section	.text$_ZSt13__complex_tanCd,"x"
	.linkonce discard
	.globl	_ZSt13__complex_tanCd
	.def	_ZSt13__complex_tanCd;	.scl	2;	.type	32;	.endef
	.seh_proc	_ZSt13__complex_tanCd
_ZSt13__complex_tanCd:
.LFB2833:
	push	rbp	 #
	.seh_pushreg	rbp
	push	rbx	 #
	.seh_pushreg	rbx
	sub	rsp, 104	 #,
	.seh_stackalloc	104
	lea	rbp, 96[rsp]	 #,
	.seh_setframe	rbp, 96
	.seh_endprologue
	mov	QWORD PTR 32[rbp], rcx	 # .result_ptr, .result_ptr
	mov	rbx, rdx	 # tmp102,
	movsd	xmm0, QWORD PTR [rbx]	 # tmp103, __z
	movsd	QWORD PTR -32[rbp], xmm0	 # __z, tmp103
	movsd	xmm0, QWORD PTR 8[rbx]	 # tmp104, __z
	movsd	QWORD PTR -24[rbp], xmm0	 # __z, tmp104
	movsd	xmm0, QWORD PTR -32[rbp]	 # tmp105, __z
	movsd	QWORD PTR -8[rbp], xmm0	 # __z$real, tmp105
	movsd	xmm0, QWORD PTR -24[rbp]	 # tmp106, __z
	movsd	QWORD PTR -16[rbp], xmm0	 # __z$imag, tmp106
 # D:/mingw/mingw64/include/c++/15.1.0/complex:1286:   __complex_tan(__complex__ double __z) { return __builtin_ctan(__z); }
	lea	rax, -48[rbp]	 # tmp107,
	movsd	xmm0, QWORD PTR -32[rbp]	 # tmp108, __z
	movsd	QWORD PTR -64[rbp], xmm0	 #, tmp108
	movsd	xmm0, QWORD PTR -24[rbp]	 # tmp109, __z
	movsd	QWORD PTR -56[rbp], xmm0	 #, tmp109
	lea	rdx, -64[rbp]	 # tmp110,
	mov	rcx, rax	 #, tmp107
	call	ctan	 #
	movsd	xmm1, QWORD PTR -48[rbp]	 # _1,
	movsd	xmm0, QWORD PTR -40[rbp]	 # _1,
 # D:/mingw/mingw64/include/c++/15.1.0/complex:1286:   __complex_tan(__complex__ double __z) { return __builtin_ctan(__z); }
	mov	rax, QWORD PTR 32[rbp]	 # tmp111, .result_ptr
	movsd	QWORD PTR [rax], xmm1	 # REALPART_EXPR <<retval>>, _7
	mov	rax, QWORD PTR 32[rbp]	 # tmp112, .result_ptr
	movsd	QWORD PTR 8[rax], xmm0	 # IMAGPART_EXPR <<retval>>, _8
 # D:/mingw/mingw64/include/c++/15.1.0/complex:1286:   __complex_tan(__complex__ double __z) { return __builtin_ctan(__z); }
	mov	rax, QWORD PTR 32[rbp]	 #, .result_ptr
	add	rsp, 104	 #,
	pop	rbx	 #
	pop	rbp	 #
	ret	
	.seh_endproc
	.section	.text$_ZSt13__complex_powCdS_,"x"
	.linkonce discard
	.globl	_ZSt13__complex_powCdS_
	.def	_ZSt13__complex_powCdS_;	.scl	2;	.type	32;	.endef
	.seh_proc	_ZSt13__complex_powCdS_
_ZSt13__complex_powCdS_:
.LFB2846:
	push	rbp	 #
	.seh_pushreg	rbp
	push	rbx	 #
	.seh_pushreg	rbx
	sub	rsp, 152	 #,
	.seh_stackalloc	152
	lea	rbp, 144[rsp]	 #,
	.seh_setframe	rbp, 144
	.seh_endprologue
	mov	QWORD PTR 32[rbp], rcx	 # .result_ptr, .result_ptr
	mov	rbx, rdx	 # tmp102,
	movsd	xmm0, QWORD PTR [rbx]	 # tmp103, __x
	movsd	QWORD PTR -48[rbp], xmm0	 # __x, tmp103
	movsd	xmm0, QWORD PTR 8[rbx]	 # tmp104, __x
	movsd	QWORD PTR -40[rbp], xmm0	 # __x, tmp104
	mov	rbx, r8	 # tmp105,
	movsd	xmm0, QWORD PTR [rbx]	 # tmp106, __y
	movsd	QWORD PTR -64[rbp], xmm0	 # __y, tmp106
	movsd	xmm0, QWORD PTR 8[rbx]	 # tmp107, __y
	movsd	QWORD PTR -56[rbp], xmm0	 # __y, tmp107
	movsd	xmm0, QWORD PTR -48[rbp]	 # tmp108, __x
	movsd	QWORD PTR -8[rbp], xmm0	 # __x$real, tmp108
	movsd	xmm0, QWORD PTR -40[rbp]	 # tmp109, __x
	movsd	QWORD PTR -16[rbp], xmm0	 # __x$imag, tmp109
	movsd	xmm0, QWORD PTR -64[rbp]	 # tmp110, __y
	movsd	QWORD PTR -24[rbp], xmm0	 # __y$real, tmp110
	movsd	xmm0, QWORD PTR -56[rbp]	 # tmp111, __y
	movsd	QWORD PTR -32[rbp], xmm0	 # __y$imag, tmp111
 # D:/mingw/mingw64/include/c++/15.1.0/complex:1391:   { return __builtin_cpow(__x, __y); }
	lea	rax, -80[rbp]	 # tmp112,
	movsd	xmm0, QWORD PTR -48[rbp]	 # tmp113, __x
	movsd	QWORD PTR -96[rbp], xmm0	 #, tmp113
	movsd	xmm0, QWORD PTR -40[rbp]	 # tmp114, __x
	movsd	QWORD PTR -88[rbp], xmm0	 #, tmp114
	movsd	xmm0, QWORD PTR -64[rbp]	 # tmp115, __y
	movsd	QWORD PTR -112[rbp], xmm0	 #, tmp115
	movsd	xmm0, QWORD PTR -56[rbp]	 # tmp116, __y
	movsd	QWORD PTR -104[rbp], xmm0	 #, tmp116
	lea	rcx, -112[rbp]	 # tmp117,
	lea	rdx, -96[rbp]	 # tmp118,
	mov	r8, rcx	 #, tmp117
	mov	rcx, rax	 #, tmp112
	call	cpow	 #
	movsd	xmm1, QWORD PTR -80[rbp]	 # _1,
	movsd	xmm0, QWORD PTR -72[rbp]	 # _1,
 # D:/mingw/mingw64/include/c++/15.1.0/complex:1391:   { return __builtin_cpow(__x, __y); }
	mov	rax, QWORD PTR 32[rbp]	 # tmp119, .result_ptr
	movsd	QWORD PTR [rax], xmm1	 # REALPART_EXPR <<retval>>, _10
	mov	rax, QWORD PTR 32[rbp]	 # tmp120, .result_ptr
	movsd	QWORD PTR 8[rax], xmm0	 # IMAGPART_EXPR <<retval>>, _11
 # D:/mingw/mingw64/include/c++/15.1.0/complex:1391:   { return __builtin_cpow(__x, __y); }
	mov	rax, QWORD PTR 32[rbp]	 #, .result_ptr
	add	rsp, 152	 #,
	pop	rbx	 #
	pop	rbp	 #
	ret	
	.seh_endproc
	.section	.text$_ZNSt7complexIdEC1ECd,"x"
	.linkonce discard
	.align 2
	.globl	_ZNSt7complexIdEC1ECd
	.def	_ZNSt7complexIdEC1ECd;	.scl	2;	.type	32;	.endef
	.seh_proc	_ZNSt7complexIdEC1ECd
_ZNSt7complexIdEC1ECd:
.LFB2873:
	push	rbp	 #
	.seh_pushreg	rbp
	push	rbx	 #
	.seh_pushreg	rbx
	sub	rsp, 40	 #,
	.seh_stackalloc	40
	lea	rbp, 32[rsp]	 #,
	.seh_setframe	rbp, 32
	.seh_endprologue
	mov	QWORD PTR 32[rbp], rcx	 # this, this
	mov	rbx, rdx	 # tmp98,
	movsd	xmm0, QWORD PTR [rbx]	 # tmp99, __z
	movsd	QWORD PTR -32[rbp], xmm0	 # __z, tmp99
	movsd	xmm0, QWORD PTR 8[rbx]	 # tmp100, __z
	movsd	QWORD PTR -24[rbp], xmm0	 # __z, tmp100
	movsd	xmm0, QWORD PTR -32[rbp]	 # tmp101, __z
	movsd	QWORD PTR -8[rbp], xmm0	 # __z$real, tmp101
	movsd	xmm0, QWORD PTR -24[rbp]	 # tmp102, __z
	movsd	QWORD PTR -16[rbp], xmm0	 # __z$imag, tmp102
 # D:/mingw/mingw64/include/c++/15.1.0/complex:1600:       _GLIBCXX_CONSTEXPR complex(_ComplexT __z) : _M_value(__z) { }
	mov	rax, QWORD PTR 32[rbp]	 # tmp103, this
	movsd	xmm0, QWORD PTR -8[rbp]	 # tmp104, __z$real
	movsd	QWORD PTR [rax], xmm0	 # REALPART_EXPR <this_2(D)->_M_value>, tmp104
	mov	rax, QWORD PTR 32[rbp]	 # tmp105, this
	movsd	xmm0, QWORD PTR -16[rbp]	 # tmp106, __z$imag
	movsd	QWORD PTR 8[rax], xmm0	 # IMAGPART_EXPR <this_2(D)->_M_value>, tmp106
 # D:/mingw/mingw64/include/c++/15.1.0/complex:1600:       _GLIBCXX_CONSTEXPR complex(_ComplexT __z) : _M_value(__z) { }
	nop	
	add	rsp, 40	 #,
	pop	rbx	 #
	pop	rbp	 #
	ret	
	.seh_endproc
	.section	.text$_ZNSt7complexIdEC1Edd,"x"
	.linkonce discard
	.align 2
	.globl	_ZNSt7complexIdEC1Edd
	.def	_ZNSt7complexIdEC1Edd;	.scl	2;	.type	32;	.endef
	.seh_proc	_ZNSt7complexIdEC1Edd
_ZNSt7complexIdEC1Edd:
.LFB2876:
	push	rbp	 #
	.seh_pushreg	rbp
	mov	rbp, rsp	 #,
	.seh_setframe	rbp, 0
	.seh_endprologue
	mov	QWORD PTR 16[rbp], rcx	 # this, this
	movsd	QWORD PTR 24[rbp], xmm1	 # __r, __r
	movsd	QWORD PTR 32[rbp], xmm2	 # __i, __i
 # D:/mingw/mingw64/include/c++/15.1.0/complex:1604:       : _M_value{ __r, __i } { }
	mov	rax, QWORD PTR 16[rbp]	 # tmp100, this
	movsd	xmm0, QWORD PTR 24[rbp]	 # tmp101, __r
	movsd	QWORD PTR [rax], xmm0	 # REALPART_EXPR <this_3(D)->_M_value>, tmp101
	mov	rax, QWORD PTR 16[rbp]	 # tmp102, this
	movsd	xmm0, QWORD PTR 32[rbp]	 # tmp103, __i
	movsd	QWORD PTR 8[rax], xmm0	 # IMAGPART_EXPR <this_3(D)->_M_value>, tmp103
 # D:/mingw/mingw64/include/c++/15.1.0/complex:1604:       : _M_value{ __r, __i } { }
	nop	
	pop	rbp	 #
	ret	
	.seh_endproc
	.section	.text$_ZNKSt7complexIdE4realB5cxx11Ev,"x"
	.linkonce discard
	.align 2
	.globl	_ZNKSt7complexIdE4realB5cxx11Ev
	.def	_ZNKSt7complexIdE4realB5cxx11Ev;	.scl	2;	.type	32;	.endef
	.seh_proc	_ZNKSt7complexIdE4realB5cxx11Ev
_ZNKSt7complexIdE4realB5cxx11Ev:
.LFB2880:
	push	rbp	 #
	.seh_pushreg	rbp
	mov	rbp, rsp	 #,
	.seh_setframe	rbp, 0
	.seh_endprologue
	mov	QWORD PTR 16[rbp], rcx	 # this, this
 # D:/mingw/mingw64/include/c++/15.1.0/complex:1633:       real() const { return __real__ _M_value; }
	mov	rax, QWORD PTR 16[rbp]	 # tmp100, this
	movsd	xmm0, QWORD PTR [rax]	 # _3, this_2(D)->_M_value
 # D:/mingw/mingw64/include/c++/15.1.0/complex:1633:       real() const { return __real__ _M_value; }
	pop	rbp	 #
	ret	
	.seh_endproc
	.section	.text$_ZNKSt7complexIdE4imagB5cxx11Ev,"x"
	.linkonce discard
	.align 2
	.globl	_ZNKSt7complexIdE4imagB5cxx11Ev
	.def	_ZNKSt7complexIdE4imagB5cxx11Ev;	.scl	2;	.type	32;	.endef
	.seh_proc	_ZNKSt7complexIdE4imagB5cxx11Ev
_ZNKSt7complexIdE4imagB5cxx11Ev:
.LFB2881:
	push	rbp	 #
	.seh_pushreg	rbp
	mov	rbp, rsp	 #,
	.seh_setframe	rbp, 0
	.seh_endprologue
	mov	QWORD PTR 16[rbp], rcx	 # this, this
 # D:/mingw/mingw64/include/c++/15.1.0/complex:1637:       imag() const { return __imag__ _M_value; }
	mov	rax, QWORD PTR 16[rbp]	 # tmp100, this
	movsd	xmm0, QWORD PTR 8[rax]	 # _3, this_2(D)->_M_value
 # D:/mingw/mingw64/include/c++/15.1.0/complex:1637:       imag() const { return __imag__ _M_value; }
	pop	rbp	 #
	ret	
	.seh_endproc
	.section	.text$_ZNKSt7complexIdE5__repEv,"x"
	.linkonce discard
	.align 2
	.globl	_ZNKSt7complexIdE5__repEv
	.def	_ZNKSt7complexIdE5__repEv;	.scl	2;	.type	32;	.endef
	.seh_proc	_ZNKSt7complexIdE5__repEv
_ZNKSt7complexIdE5__repEv:
.LFB2894:
	push	rbp	 #
	.seh_pushreg	rbp
	mov	rbp, rsp	 #,
	.seh_setframe	rbp, 0
	.seh_endprologue
	mov	QWORD PTR 16[rbp], rcx	 # .result_ptr, .result_ptr
	mov	QWORD PTR 24[rbp], rdx	 # this, this
	mov	rax, QWORD PTR 24[rbp]	 # tmp102, this
	movsd	xmm1, QWORD PTR [rax]	 # _5, this_3(D)->_M_value
	mov	rax, QWORD PTR 24[rbp]	 # tmp103, this
	movsd	xmm0, QWORD PTR 8[rax]	 # _6, this_3(D)->_M_value
 # D:/mingw/mingw64/include/c++/15.1.0/complex:1742:       _GLIBCXX_CONSTEXPR _ComplexT __rep() const { return _M_value; }
	mov	rax, QWORD PTR 16[rbp]	 # tmp104, .result_ptr
	movsd	QWORD PTR [rax], xmm1	 # REALPART_EXPR <<retval>>, _5
	mov	rax, QWORD PTR 16[rbp]	 # tmp105, .result_ptr
	movsd	QWORD PTR 8[rax], xmm0	 # IMAGPART_EXPR <<retval>>, _6
 # D:/mingw/mingw64/include/c++/15.1.0/complex:1742:       _GLIBCXX_CONSTEXPR _ComplexT __rep() const { return _M_value; }
	mov	rax, QWORD PTR 16[rbp]	 #, .result_ptr
	pop	rbp	 #
	ret	
	.seh_endproc
	.section	.text$_ZNSt8__detail15_Hash_node_baseC2Ev,"x"
	.linkonce discard
	.align 2
	.globl	_ZNSt8__detail15_Hash_node_baseC2Ev
	.def	_ZNSt8__detail15_Hash_node_baseC2Ev;	.scl	2;	.type	32;	.endef
	.seh_proc	_ZNSt8__detail15_Hash_node_baseC2Ev
_ZNSt8__detail15_Hash_node_baseC2Ev:
.LFB3378:
	push	rbp	 #
	.seh_pushreg	rbp
	mov	rbp, rsp	 #,
	.seh_setframe	rbp, 0
	.seh_endprologue
	mov	QWORD PTR 16[rbp], rcx	 # this, this
 # D:/mingw/mingw64/include/c++/15.1.0/bits/hashtable_policy.h:296:     _Hash_node_base() noexcept : _M_nxt() { }
	mov	rax, QWORD PTR 16[rbp]	 # tmp98, this
	mov	QWORD PTR [rax], 0	 # this_2(D)->_M_nxt,
 # D:/mingw/mingw64/include/c++/15.1.0/bits/hashtable_policy.h:296:     _Hash_node_base() noexcept : _M_nxt() { }
	nop	
	pop	rbp	 #
	ret	
	.seh_endproc
	.section	.text$_ZNSt8__detail15_Hash_node_baseC1Ev,"x"
	.linkonce discard
	.align 2
	.globl	_ZNSt8__detail15_Hash_node_baseC1Ev
	.def	_ZNSt8__detail15_Hash_node_baseC1Ev;	.scl	2;	.type	32;	.endef
	.seh_proc	_ZNSt8__detail15_Hash_node_baseC1Ev
_ZNSt8__detail15_Hash_node_baseC1Ev:
.LFB3379:
	push	rbp	 #
	.seh_pushreg	rbp
	mov	rbp, rsp	 #,
	.seh_setframe	rbp, 0
	.seh_endprologue
	mov	QWORD PTR 16[rbp], rcx	 # this, this
 # D:/mingw/mingw64/include/c++/15.1.0/bits/hashtable_policy.h:296:     _Hash_node_base() noexcept : _M_nxt() { }
	mov	rax, QWORD PTR 16[rbp]	 # tmp98, this
	mov	QWORD PTR [rax], 0	 # this_2(D)->_M_nxt,
 # D:/mingw/mingw64/include/c++/15.1.0/bits/hashtable_policy.h:296:     _Hash_node_base() noexcept : _M_nxt() { }
	nop	
	pop	rbp	 #
	ret	
	.seh_endproc
	.section	.text$_ZNKSt8__detail18_Mod_range_hashingclEyy,"x"
	.linkonce discard
	.align 2
	.globl	_ZNKSt8__detail18_Mod_range_hashingclEyy
	.def	_ZNKSt8__detail18_Mod_range_hashingclEyy;	.scl	2;	.type	32;	.endef
	.seh_proc	_ZNKSt8__detail18_Mod_range_hashingclEyy
_ZNKSt8__detail18_Mod_range_hashingclEyy:
.LFB3412:
	push	rbp	 #
	.seh_pushreg	rbp
	mov	rbp, rsp	 #,
	.seh_setframe	rbp, 0
	.seh_endprologue
	mov	QWORD PTR 16[rbp], rcx	 # this, this
	mov	QWORD PTR 24[rbp], rdx	 # __num, __num
	mov	QWORD PTR 32[rbp], r8	 # __den, __den
 # D:/mingw/mingw64/include/c++/15.1.0/bits/hashtable_policy.h:584:     { return __num % __den; }
	mov	rax, QWORD PTR 24[rbp]	 # tmp100, __num
	mov	edx, 0	 # _3,
	div	QWORD PTR 32[rbp]	 # __den
	mov	rax, rdx	 # _3, _3
 # D:/mingw/mingw64/include/c++/15.1.0/bits/hashtable_policy.h:584:     { return __num % __den; }
	pop	rbp	 #
	ret	
	.seh_endproc
	.section	.text$_ZNSt8__detail20_Prime_rehash_policyC1Ef,"x"
	.linkonce discard
	.align 2
	.globl	_ZNSt8__detail20_Prime_rehash_policyC1Ef
	.def	_ZNSt8__detail20_Prime_rehash_policyC1Ef;	.scl	2;	.type	32;	.endef
	.seh_proc	_ZNSt8__detail20_Prime_rehash_policyC1Ef
_ZNSt8__detail20_Prime_rehash_policyC1Ef:
.LFB3415:
	push	rbp	 #
	.seh_pushreg	rbp
	mov	rbp, rsp	 #,
	.seh_setframe	rbp, 0
	.seh_endprologue
	mov	QWORD PTR 16[rbp], rcx	 # this, this
	movss	DWORD PTR 24[rbp], xmm1	 # __z, __z
 # D:/mingw/mingw64/include/c++/15.1.0/bits/hashtable_policy.h:601:     : _M_max_load_factor(__z), _M_next_resize(0) { }
	mov	rax, QWORD PTR 16[rbp]	 # tmp98, this
	movss	xmm0, DWORD PTR 24[rbp]	 # tmp99, __z
	movss	DWORD PTR [rax], xmm0	 # this_2(D)->_M_max_load_factor, tmp99
 # D:/mingw/mingw64/include/c++/15.1.0/bits/hashtable_policy.h:601:     : _M_max_load_factor(__z), _M_next_resize(0) { }
	mov	rax, QWORD PTR 16[rbp]	 # tmp100, this
	mov	QWORD PTR 8[rax], 0	 # this_2(D)->_M_next_resize,
 # D:/mingw/mingw64/include/c++/15.1.0/bits/hashtable_policy.h:601:     : _M_max_load_factor(__z), _M_next_resize(0) { }
	nop	
	pop	rbp	 #
	ret	
	.seh_endproc
	.section	.text$_ZNKSt8__detail20_Prime_rehash_policy8_M_stateEv,"x"
	.linkonce discard
	.align 2
	.globl	_ZNKSt8__detail20_Prime_rehash_policy8_M_stateEv
	.def	_ZNKSt8__detail20_Prime_rehash_policy8_M_stateEv;	.scl	2;	.type	32;	.endef
	.seh_proc	_ZNKSt8__detail20_Prime_rehash_policy8_M_stateEv
_ZNKSt8__detail20_Prime_rehash_policy8_M_stateEv:
.LFB3418:
	push	rbp	 #
	.seh_pushreg	rbp
	mov	rbp, rsp	 #,
	.seh_setframe	rbp, 0
	.seh_endprologue
	mov	QWORD PTR 16[rbp], rcx	 # this, this
 # D:/mingw/mingw64/include/c++/15.1.0/bits/hashtable_policy.h:630:     { return _M_next_resize; }
	mov	rax, QWORD PTR 16[rbp]	 # tmp100, this
	mov	rax, QWORD PTR 8[rax]	 # _3, this_2(D)->_M_next_resize
 # D:/mingw/mingw64/include/c++/15.1.0/bits/hashtable_policy.h:630:     { return _M_next_resize; }
	pop	rbp	 #
	ret	
	.seh_endproc
	.section	.text$_ZNSt8__detail20_Prime_rehash_policy8_M_resetEy,"x"
	.linkonce discard
	.align 2
	.globl	_ZNSt8__detail20_Prime_rehash_policy8_M_resetEy
	.def	_ZNSt8__detail20_Prime_rehash_policy8_M_resetEy;	.scl	2;	.type	32;	.endef
	.seh_proc	_ZNSt8__detail20_Prime_rehash_policy8_M_resetEy
_ZNSt8__detail20_Prime_rehash_policy8_M_resetEy:
.LFB3420:
	push	rbp	 #
	.seh_pushreg	rbp
	mov	rbp, rsp	 #,
	.seh_setframe	rbp, 0
	.seh_endprologue
	mov	QWORD PTR 16[rbp], rcx	 # this, this
	mov	QWORD PTR 24[rbp], rdx	 # __state, __state
 # D:/mingw/mingw64/include/c++/15.1.0/bits/hashtable_policy.h:638:     { _M_next_resize = __state; }
	mov	rax, QWORD PTR 16[rbp]	 # tmp98, this
	mov	rdx, QWORD PTR 24[rbp]	 # tmp99, __state
	mov	QWORD PTR 8[rax], rdx	 # this_2(D)->_M_next_resize, tmp99
 # D:/mingw/mingw64/include/c++/15.1.0/bits/hashtable_policy.h:638:     { _M_next_resize = __state; }
	nop	
	pop	rbp	 #
	ret	
	.seh_endproc
	.section	.text$_ZSt3minIyERKT_S2_S2_,"x"
	.linkonce discard
	.globl	_ZSt3minIyERKT_S2_S2_
	.def	_ZSt3minIyERKT_S2_S2_;	.scl	2;	.type	32;	.endef
	.seh_proc	_ZSt3minIyERKT_S2_S2_
_ZSt3minIyERKT_S2_S2_:
.LFB3428:
	push	rbp	 #
	.seh_pushreg	rbp
	mov	rbp, rsp	 #,
	.seh_setframe	rbp, 0
	.seh_endprologue
	mov	QWORD PTR 16[rbp], rcx	 # __a, __a
	mov	QWORD PTR 24[rbp], rdx	 # __b, __b
 # D:/mingw/mingw64/include/c++/15.1.0/bits/stl_algobase.h:239:       if (__b < __a)
	mov	rax, QWORD PTR 24[rbp]	 # tmp102, __b
	mov	rdx, QWORD PTR [rax]	 # _1, *__b_5(D)
	mov	rax, QWORD PTR 16[rbp]	 # tmp103, __a
	mov	rax, QWORD PTR [rax]	 # _2, *__a_6(D)
 # D:/mingw/mingw64/include/c++/15.1.0/bits/stl_algobase.h:239:       if (__b < __a)
	cmp	rdx, rax	 # _1, _2
	jnb	.L84	 #,
 # D:/mingw/mingw64/include/c++/15.1.0/bits/stl_algobase.h:240: 	return __b;
	mov	rax, QWORD PTR 24[rbp]	 # _3, __b
	jmp	.L85	 #
.L84:
 # D:/mingw/mingw64/include/c++/15.1.0/bits/stl_algobase.h:241:       return __a;
	mov	rax, QWORD PTR 16[rbp]	 # _3, __a
.L85:
 # D:/mingw/mingw64/include/c++/15.1.0/bits/stl_algobase.h:242:     }
	pop	rbp	 #
	ret	
	.seh_endproc
	.section	.text$_ZNSt12_Vector_baseISt7complexIdESaIS1_EE12_Vector_implD1Ev,"x"
	.linkonce discard
	.align 2
	.globl	_ZNSt12_Vector_baseISt7complexIdESaIS1_EE12_Vector_implD1Ev
	.def	_ZNSt12_Vector_baseISt7complexIdESaIS1_EE12_Vector_implD1Ev;	.scl	2;	.type	32;	.endef
	.seh_proc	_ZNSt12_Vector_baseISt7complexIdESaIS1_EE12_Vector_implD1Ev
_ZNSt12_Vector_baseISt7complexIdESaIS1_EE12_Vector_implD1Ev:
.LFB3831:
	push	rbp	 #
	.seh_pushreg	rbp
	mov	rbp, rsp	 #,
	.seh_setframe	rbp, 0
	sub	rsp, 48	 #,
	.seh_stackalloc	48
	.seh_endprologue
	mov	QWORD PTR 16[rbp], rcx	 # this, this
	mov	rax, QWORD PTR 16[rbp]	 # tmp98, this
	mov	QWORD PTR -8[rbp], rax	 # this, tmp98
 # D:/mingw/mingw64/include/c++/15.1.0/bits/allocator.h:189:       ~allocator() _GLIBCXX_NOTHROW { }
	mov	rax, QWORD PTR -8[rbp]	 # tmp99, this
	mov	rcx, rax	 #, tmp99
	call	_ZNSt15__new_allocatorISt7complexIdEED2Ev	 #
	nop	
 # D:/mingw/mingw64/include/c++/15.1.0/bits/stl_vector.h:139:       struct _Vector_impl
	nop	
	add	rsp, 48	 #,
	pop	rbp	 #
	ret	
	.seh_endproc
	.section	.text$_ZNSt12_Vector_baseISt7complexIdESaIS1_EEC2Ev,"x"
	.linkonce discard
	.align 2
	.globl	_ZNSt12_Vector_baseISt7complexIdESaIS1_EEC2Ev
	.def	_ZNSt12_Vector_baseISt7complexIdESaIS1_EEC2Ev;	.scl	2;	.type	32;	.endef
	.seh_proc	_ZNSt12_Vector_baseISt7complexIdESaIS1_EEC2Ev
_ZNSt12_Vector_baseISt7complexIdESaIS1_EEC2Ev:
.LFB3832:
	push	rbp	 #
	.seh_pushreg	rbp
	mov	rbp, rsp	 #,
	.seh_setframe	rbp, 0
	sub	rsp, 32	 #,
	.seh_stackalloc	32
	.seh_endprologue
	mov	QWORD PTR 16[rbp], rcx	 # this, this
 # D:/mingw/mingw64/include/c++/15.1.0/bits/stl_vector.h:321:       _Vector_base() = default;
	mov	rax, QWORD PTR 16[rbp]	 # _1, this
	mov	rcx, rax	 #, _1
	call	_ZNSt12_Vector_baseISt7complexIdESaIS1_EE12_Vector_implC1Ev	 #
	nop	
	add	rsp, 32	 #,
	pop	rbp	 #
	ret	
	.seh_endproc
	.section	.text$_ZNSt6vectorISt7complexIdESaIS1_EEC1Ev,"x"
	.linkonce discard
	.align 2
	.globl	_ZNSt6vectorISt7complexIdESaIS1_EEC1Ev
	.def	_ZNSt6vectorISt7complexIdESaIS1_EEC1Ev;	.scl	2;	.type	32;	.endef
	.seh_proc	_ZNSt6vectorISt7complexIdESaIS1_EEC1Ev
_ZNSt6vectorISt7complexIdESaIS1_EEC1Ev:
.LFB3835:
	push	rbp	 #
	.seh_pushreg	rbp
	mov	rbp, rsp	 #,
	.seh_setframe	rbp, 0
	sub	rsp, 32	 #,
	.seh_stackalloc	32
	.seh_endprologue
	mov	QWORD PTR 16[rbp], rcx	 # this, this
 # D:/mingw/mingw64/include/c++/15.1.0/bits/stl_vector.h:561:       vector() = default;
	mov	rax, QWORD PTR 16[rbp]	 # _1, this
	mov	rcx, rax	 #, _1
	call	_ZNSt12_Vector_baseISt7complexIdESaIS1_EEC2Ev	 #
	nop	
	add	rsp, 32	 #,
	pop	rbp	 #
	ret	
	.seh_endproc
	.section	.text$_ZNSt12_Vector_baseI8CalcStepSaIS0_EE12_Vector_implD1Ev,"x"
	.linkonce discard
	.align 2
	.globl	_ZNSt12_Vector_baseI8CalcStepSaIS0_EE12_Vector_implD1Ev
	.def	_ZNSt12_Vector_baseI8CalcStepSaIS0_EE12_Vector_implD1Ev;	.scl	2;	.type	32;	.endef
	.seh_proc	_ZNSt12_Vector_baseI8CalcStepSaIS0_EE12_Vector_implD1Ev
_ZNSt12_Vector_baseI8CalcStepSaIS0_EE12_Vector_implD1Ev:
.LFB4684:
	push	rbp	 #
	.seh_pushreg	rbp
	mov	rbp, rsp	 #,
	.seh_setframe	rbp, 0
	sub	rsp, 48	 #,
	.seh_stackalloc	48
	.seh_endprologue
	mov	QWORD PTR 16[rbp], rcx	 # this, this
	mov	rax, QWORD PTR 16[rbp]	 # tmp98, this
	mov	QWORD PTR -8[rbp], rax	 # this, tmp98
 # D:/mingw/mingw64/include/c++/15.1.0/bits/allocator.h:189:       ~allocator() _GLIBCXX_NOTHROW { }
	mov	rax, QWORD PTR -8[rbp]	 # tmp99, this
	mov	rcx, rax	 #, tmp99
	call	_ZNSt15__new_allocatorI8CalcStepED2Ev	 #
	nop	
 # D:/mingw/mingw64/include/c++/15.1.0/bits/stl_vector.h:139:       struct _Vector_impl
	nop	
	add	rsp, 48	 #,
	pop	rbp	 #
	ret	
	.seh_endproc
	.section	.text$_ZNSt12_Vector_baseI8CalcStepSaIS0_EEC2Ev,"x"
	.linkonce discard
	.align 2
	.globl	_ZNSt12_Vector_baseI8CalcStepSaIS0_EEC2Ev
	.def	_ZNSt12_Vector_baseI8CalcStepSaIS0_EEC2Ev;	.scl	2;	.type	32;	.endef
	.seh_proc	_ZNSt12_Vector_baseI8CalcStepSaIS0_EEC2Ev
_ZNSt12_Vector_baseI8CalcStepSaIS0_EEC2Ev:
.LFB4685:
	push	rbp	 #
	.seh_pushreg	rbp
	mov	rbp, rsp	 #,
	.seh_setframe	rbp, 0
	sub	rsp, 32	 #,
	.seh_stackalloc	32
	.seh_endprologue
	mov	QWORD PTR 16[rbp], rcx	 # this, this
 # D:/mingw/mingw64/include/c++/15.1.0/bits/stl_vector.h:321:       _Vector_base() = default;
	mov	rax, QWORD PTR 16[rbp]	 # _1, this
	mov	rcx, rax	 #, _1
	call	_ZNSt12_Vector_baseI8CalcStepSaIS0_EE12_Vector_implC1Ev	 #
	nop	
	add	rsp, 32	 #,
	pop	rbp	 #
	ret	
	.seh_endproc
	.section	.text$_ZNSt6vectorI8CalcStepSaIS0_EEC1Ev,"x"
	.linkonce discard
	.align 2
	.globl	_ZNSt6vectorI8CalcStepSaIS0_EEC1Ev
	.def	_ZNSt6vectorI8CalcStepSaIS0_EEC1Ev;	.scl	2;	.type	32;	.endef
	.seh_proc	_ZNSt6vectorI8CalcStepSaIS0_EEC1Ev
_ZNSt6vectorI8CalcStepSaIS0_EEC1Ev:
.LFB4688:
	push	rbp	 #
	.seh_pushreg	rbp
	mov	rbp, rsp	 #,
	.seh_setframe	rbp, 0
	sub	rsp, 32	 #,
	.seh_stackalloc	32
	.seh_endprologue
	mov	QWORD PTR 16[rbp], rcx	 # this, this
 # D:/mingw/mingw64/include/c++/15.1.0/bits/stl_vector.h:561:       vector() = default;
	mov	rax, QWORD PTR 16[rbp]	 # _1, this
	mov	rcx, rax	 #, _1
	call	_ZNSt12_Vector_baseI8CalcStepSaIS0_EEC2Ev	 #
	nop	
	add	rsp, 32	 #,
	pop	rbp	 #
	ret	
	.seh_endproc
	.section	.text$_ZNSt12_Vector_baseISt6vectorISt7complexIdESaIS2_EESaIS4_EE12_Vector_implD1Ev,"x"
	.linkonce discard
	.align 2
	.globl	_ZNSt12_Vector_baseISt6vectorISt7complexIdESaIS2_EESaIS4_EE12_Vector_implD1Ev
	.def	_ZNSt12_Vector_baseISt6vectorISt7complexIdESaIS2_EESaIS4_EE12_Vector_implD1Ev;	.scl	2;	.type	32;	.endef
	.seh_proc	_ZNSt12_Vector_baseISt6vectorISt7complexIdESaIS2_EESaIS4_EE12_Vector_implD1Ev
_ZNSt12_Vector_baseISt6vectorISt7complexIdESaIS2_EESaIS4_EE12_Vector_implD1Ev:
.LFB4694:
	push	rbp	 #
	.seh_pushreg	rbp
	mov	rbp, rsp	 #,
	.seh_setframe	rbp, 0
	sub	rsp, 48	 #,
	.seh_stackalloc	48
	.seh_endprologue
	mov	QWORD PTR 16[rbp], rcx	 # this, this
	mov	rax, QWORD PTR 16[rbp]	 # tmp98, this
	mov	QWORD PTR -8[rbp], rax	 # this, tmp98
 # D:/mingw/mingw64/include/c++/15.1.0/bits/allocator.h:189:       ~allocator() _GLIBCXX_NOTHROW { }
	mov	rax, QWORD PTR -8[rbp]	 # tmp99, this
	mov	rcx, rax	 #, tmp99
	call	_ZNSt15__new_allocatorISt6vectorISt7complexIdESaIS2_EEED2Ev	 #
	nop	
 # D:/mingw/mingw64/include/c++/15.1.0/bits/stl_vector.h:139:       struct _Vector_impl
	nop	
	add	rsp, 48	 #,
	pop	rbp	 #
	ret	
	.seh_endproc
	.section	.text$_ZNSt12_Vector_baseISt6vectorISt7complexIdESaIS2_EESaIS4_EEC2Ev,"x"
	.linkonce discard
	.align 2
	.globl	_ZNSt12_Vector_baseISt6vectorISt7complexIdESaIS2_EESaIS4_EEC2Ev
	.def	_ZNSt12_Vector_baseISt6vectorISt7complexIdESaIS2_EESaIS4_EEC2Ev;	.scl	2;	.type	32;	.endef
	.seh_proc	_ZNSt12_Vector_baseISt6vectorISt7complexIdESaIS2_EESaIS4_EEC2Ev
_ZNSt12_Vector_baseISt6vectorISt7complexIdESaIS2_EESaIS4_EEC2Ev:
.LFB4695:
	push	rbp	 #
	.seh_pushreg	rbp
	mov	rbp, rsp	 #,
	.seh_setframe	rbp, 0
	sub	rsp, 32	 #,
	.seh_stackalloc	32
	.seh_endprologue
	mov	QWORD PTR 16[rbp], rcx	 # this, this
 # D:/mingw/mingw64/include/c++/15.1.0/bits/stl_vector.h:321:       _Vector_base() = default;
	mov	rax, QWORD PTR 16[rbp]	 # _1, this
	mov	rcx, rax	 #, _1
	call	_ZNSt12_Vector_baseISt6vectorISt7complexIdESaIS2_EESaIS4_EE12_Vector_implC1Ev	 #
	nop	
	add	rsp, 32	 #,
	pop	rbp	 #
	ret	
	.seh_endproc
	.section	.text$_ZNSt6vectorIS_ISt7complexIdESaIS1_EESaIS3_EEC1Ev,"x"
	.linkonce discard
	.align 2
	.globl	_ZNSt6vectorIS_ISt7complexIdESaIS1_EESaIS3_EEC1Ev
	.def	_ZNSt6vectorIS_ISt7complexIdESaIS1_EESaIS3_EEC1Ev;	.scl	2;	.type	32;	.endef
	.seh_proc	_ZNSt6vectorIS_ISt7complexIdESaIS1_EESaIS3_EEC1Ev
_ZNSt6vectorIS_ISt7complexIdESaIS1_EESaIS3_EEC1Ev:
.LFB4698:
	push	rbp	 #
	.seh_pushreg	rbp
	mov	rbp, rsp	 #,
	.seh_setframe	rbp, 0
	sub	rsp, 32	 #,
	.seh_stackalloc	32
	.seh_endprologue
	mov	QWORD PTR 16[rbp], rcx	 # this, this
 # D:/mingw/mingw64/include/c++/15.1.0/bits/stl_vector.h:561:       vector() = default;
	mov	rax, QWORD PTR 16[rbp]	 # _1, this
	mov	rcx, rax	 #, _1
	call	_ZNSt12_Vector_baseISt6vectorISt7complexIdESaIS2_EESaIS4_EEC2Ev	 #
	nop	
	add	rsp, 32	 #,
	pop	rbp	 #
	ret	
	.seh_endproc
	.section	.text$_ZNSt12_Vector_baseI8CalcStepSaIS0_EEC2EOS2_,"x"
	.linkonce discard
	.align 2
	.globl	_ZNSt12_Vector_baseI8CalcStepSaIS0_EEC2EOS2_
	.def	_ZNSt12_Vector_baseI8CalcStepSaIS0_EEC2EOS2_;	.scl	2;	.type	32;	.endef
	.seh_proc	_ZNSt12_Vector_baseI8CalcStepSaIS0_EEC2EOS2_
_ZNSt12_Vector_baseI8CalcStepSaIS0_EEC2EOS2_:
.LFB4702:
	push	rbp	 #
	.seh_pushreg	rbp
	mov	rbp, rsp	 #,
	.seh_setframe	rbp, 0
	sub	rsp, 32	 #,
	.seh_stackalloc	32
	.seh_endprologue
	mov	QWORD PTR 16[rbp], rcx	 # this, this
	mov	QWORD PTR 24[rbp], rdx	 # D.93594, D.93594
 # D:/mingw/mingw64/include/c++/15.1.0/bits/stl_vector.h:344:       _Vector_base(_Vector_base&&) = default;
	mov	rax, QWORD PTR 16[rbp]	 # _1, this
	mov	rdx, QWORD PTR 24[rbp]	 # _2, D.93594
	mov	rcx, rax	 #, _1
	call	_ZNSt12_Vector_baseI8CalcStepSaIS0_EE12_Vector_implC1EOS3_	 #
	nop	
	add	rsp, 32	 #,
	pop	rbp	 #
	ret	
	.seh_endproc
	.section	.text$_ZNSt6vectorI8CalcStepSaIS0_EEC1EOS2_,"x"
	.linkonce discard
	.align 2
	.globl	_ZNSt6vectorI8CalcStepSaIS0_EEC1EOS2_
	.def	_ZNSt6vectorI8CalcStepSaIS0_EEC1EOS2_;	.scl	2;	.type	32;	.endef
	.seh_proc	_ZNSt6vectorI8CalcStepSaIS0_EEC1EOS2_
_ZNSt6vectorI8CalcStepSaIS0_EEC1EOS2_:
.LFB4705:
	push	rbp	 #
	.seh_pushreg	rbp
	mov	rbp, rsp	 #,
	.seh_setframe	rbp, 0
	sub	rsp, 32	 #,
	.seh_stackalloc	32
	.seh_endprologue
	mov	QWORD PTR 16[rbp], rcx	 # this, this
	mov	QWORD PTR 24[rbp], rdx	 # D.94137, D.94137
 # D:/mingw/mingw64/include/c++/15.1.0/bits/stl_vector.h:650:       vector(vector&&) noexcept = default;
	mov	rax, QWORD PTR 16[rbp]	 # _1, this
	mov	rdx, QWORD PTR 24[rbp]	 # _2, D.94137
	mov	rcx, rax	 #, _1
	call	_ZNSt12_Vector_baseI8CalcStepSaIS0_EEC2EOS2_	 #
	nop	
	add	rsp, 32	 #,
	pop	rbp	 #
	ret	
	.seh_endproc
	.section	.text$_ZN8CalcflowC1ESt6vectorI8CalcStepSaIS1_EE,"x"
	.linkonce discard
	.align 2
	.globl	_ZN8CalcflowC1ESt6vectorI8CalcStepSaIS1_EE
	.def	_ZN8CalcflowC1ESt6vectorI8CalcStepSaIS1_EE;	.scl	2;	.type	32;	.endef
	.seh_proc	_ZN8CalcflowC1ESt6vectorI8CalcStepSaIS1_EE
_ZN8CalcflowC1ESt6vectorI8CalcStepSaIS1_EE:
.LFB4710:
	push	rbp	 #
	.seh_pushreg	rbp
	push	rbx	 #
	.seh_pushreg	rbx
	sub	rsp, 104	 #,
	.seh_stackalloc	104
	lea	rbp, 96[rsp]	 #,
	.seh_setframe	rbp, 96
	.seh_endprologue
	mov	QWORD PTR 32[rbp], rcx	 # this, this
	mov	QWORD PTR 40[rbp], rdx	 # steps, steps
 # D:/programs/partical_life/calcflow.cpp:25: 	explicit Calcflow(std::vector<CalcStep> steps) : flow(std::move(steps)), idx(0) {
	mov	rax, QWORD PTR 32[rbp]	 # _1, this
	mov	rdx, QWORD PTR 40[rbp]	 # tmp118, steps
	mov	QWORD PTR -24[rbp], rdx	 # __t, tmp118
 # D:/mingw/mingw64/include/c++/15.1.0/bits/move.h:139:     { return static_cast<typename std::remove_reference<_Tp>::type&&>(__t); }
	mov	rdx, QWORD PTR -24[rbp]	 # D.138064, __t
 # D:/programs/partical_life/calcflow.cpp:25: 	explicit Calcflow(std::vector<CalcStep> steps) : flow(std::move(steps)), idx(0) {
	mov	rcx, rax	 #, _1
	call	_ZNSt6vectorI8CalcStepSaIS0_EEC1EOS2_	 #
 # D:/programs/partical_life/calcflow.cpp:25: 	explicit Calcflow(std::vector<CalcStep> steps) : flow(std::move(steps)), idx(0) {
	mov	rax, QWORD PTR 32[rbp]	 # tmp119, this
	mov	QWORD PTR 24[rax], 0	 # this_14(D)->idx,
 # D:/programs/partical_life/calcflow.cpp:25: 	explicit Calcflow(std::vector<CalcStep> steps) : flow(std::move(steps)), idx(0) {
	mov	rax, QWORD PTR 32[rbp]	 # tmp120, this
	pxor	xmm0, xmm0	 # tmp121
	movups	XMMWORD PTR 32[rax], xmm0	 # this_14(D)->initial_args, tmp121
	movq	QWORD PTR 48[rax], xmm0	 # this_14(D)->initial_args, tmp121
	mov	rax, QWORD PTR 32[rbp]	 # tmp122, this
	add	rax, 32	 # _3,
	mov	rcx, rax	 #, _3
	call	_ZNSt6vectorIS_ISt7complexIdESaIS1_EESaIS3_EEC1Ev	 #
 # D:/programs/partical_life/calcflow.cpp:26: 		initial_args.reserve(flow.size());
	mov	rax, QWORD PTR 32[rbp]	 # tmp123, this
	lea	rbx, 32[rax]	 # _4,
	mov	rax, QWORD PTR 32[rbp]	 # _5, this
	mov	rcx, rax	 #, _5
	call	_ZNKSt6vectorI8CalcStepSaIS0_EE4sizeEv	 #
 # D:/programs/partical_life/calcflow.cpp:26: 		initial_args.reserve(flow.size());
	mov	rdx, rax	 #, _6
	mov	rcx, rbx	 #, _4
.LEHB0:
	call	_ZNSt6vectorIS_ISt7complexIdESaIS1_EESaIS3_EE7reserveEy	 #
 # D:/programs/partical_life/calcflow.cpp:27: 		for (const auto& st : flow) initial_args.push_back(st.args);
	mov	rax, QWORD PTR 32[rbp]	 # tmp124, this
	mov	QWORD PTR -8[rbp], rax	 # __for_range, tmp124
	mov	rax, QWORD PTR -8[rbp]	 # tmp125, __for_range
	mov	rcx, rax	 #, tmp125
	call	_ZNSt6vectorI8CalcStepSaIS0_EE5beginEv	 #
	mov	QWORD PTR -48[rbp], rax	 # __for_begin, tmp127
 # D:/programs/partical_life/calcflow.cpp:27: 		for (const auto& st : flow) initial_args.push_back(st.args);
	mov	rax, QWORD PTR -8[rbp]	 # tmp128, __for_range
	mov	rcx, rax	 #, tmp128
	call	_ZNSt6vectorI8CalcStepSaIS0_EE3endEv	 #
	mov	QWORD PTR -56[rbp], rax	 # __for_end, tmp130
 # D:/programs/partical_life/calcflow.cpp:27: 		for (const auto& st : flow) initial_args.push_back(st.args);
	jmp	.L99	 #
.L105:
 # D:/mingw/mingw64/include/c++/15.1.0/bits/stl_iterator.h:1090:       { return *_M_current; }
	mov	rax, QWORD PTR -48[rbp]	 # D.138068, __for_begin._M_current
 # D:/programs/partical_life/calcflow.cpp:27: 		for (const auto& st : flow) initial_args.push_back(st.args);
	mov	QWORD PTR -16[rbp], rax	 # st, D.138068
 # D:/programs/partical_life/calcflow.cpp:27: 		for (const auto& st : flow) initial_args.push_back(st.args);
	mov	rax, QWORD PTR 32[rbp]	 # tmp131, this
	add	rax, 32	 # _7,
 # D:/programs/partical_life/calcflow.cpp:27: 		for (const auto& st : flow) initial_args.push_back(st.args);
	mov	rdx, QWORD PTR -16[rbp]	 # tmp132, st
	add	rdx, 8	 # _8,
 # D:/programs/partical_life/calcflow.cpp:27: 		for (const auto& st : flow) initial_args.push_back(st.args);
	mov	rcx, rax	 #, _7
	call	_ZNSt6vectorIS_ISt7complexIdESaIS1_EESaIS3_EE9push_backERKS3_	 #
.LEHE0:
 # D:/mingw/mingw64/include/c++/15.1.0/bits/stl_iterator.h:1103: 	++_M_current;
	mov	rax, QWORD PTR -48[rbp]	 # _38, __for_begin._M_current
 # D:/mingw/mingw64/include/c++/15.1.0/bits/stl_iterator.h:1103: 	++_M_current;
	add	rax, 88	 # _39,
	mov	QWORD PTR -48[rbp], rax	 # __for_begin._M_current, _39
 # D:/mingw/mingw64/include/c++/15.1.0/bits/stl_iterator.h:1104: 	return *this;
	nop	
.L99:
	lea	rax, -48[rbp]	 # tmp133,
	mov	QWORD PTR -32[rbp], rax	 # this, tmp133
 # D:/mingw/mingw64/include/c++/15.1.0/bits/stl_iterator.h:1166:       { return _M_current; }
	mov	rax, QWORD PTR -32[rbp]	 # _42, this
 # D:/mingw/mingw64/include/c++/15.1.0/bits/stl_iterator.h:1247:     { return __lhs.base() != __rhs.base(); }
	mov	rdx, QWORD PTR [rax]	 # _45, *_44
	lea	rax, -56[rbp]	 # tmp134,
	mov	QWORD PTR -40[rbp], rax	 # this, tmp134
 # D:/mingw/mingw64/include/c++/15.1.0/bits/stl_iterator.h:1166:       { return _M_current; }
	mov	rax, QWORD PTR -40[rbp]	 # _47, this
 # D:/mingw/mingw64/include/c++/15.1.0/bits/stl_iterator.h:1247:     { return __lhs.base() != __rhs.base(); }
	mov	rax, QWORD PTR [rax]	 # _50, *_49
 # D:/mingw/mingw64/include/c++/15.1.0/bits/stl_iterator.h:1247:     { return __lhs.base() != __rhs.base(); }
	cmp	rdx, rax	 # _45, _50
	setne	al	 #, D.138081
 # D:/programs/partical_life/calcflow.cpp:27: 		for (const auto& st : flow) initial_args.push_back(st.args);
	test	al, al	 # D.138081
	jne	.L105	 #,
 # D:/programs/partical_life/calcflow.cpp:28: 	}
	jmp	.L108	 #
.L107:
	mov	rbx, rax	 # tmp137,
	mov	rax, QWORD PTR 32[rbp]	 # tmp135, this
	add	rax, 32	 # _9,
	mov	rcx, rax	 #, _9
	call	_ZNSt6vectorIS_ISt7complexIdESaIS1_EESaIS3_EED1Ev	 #
	mov	rax, QWORD PTR 32[rbp]	 # _10, this
	mov	rcx, rax	 #, _10
	call	_ZNSt6vectorI8CalcStepSaIS0_EED1Ev	 #
	mov	rax, rbx	 # D.139810, tmp136
	mov	rcx, rax	 #, D.139810
.LEHB1:
	call	_Unwind_Resume	 #
	nop	
.LEHE1:
.L108:
	add	rsp, 104	 #,
	pop	rbx	 #
	pop	rbp	 #
	ret	
	.seh_handler	__gxx_personality_seh0, @unwind, @except
	.seh_handlerdata
.LLSDA4710:
	.byte	0xff
	.byte	0xff
	.byte	0x1
	.uleb128 .LLSDACSE4710-.LLSDACSB4710
.LLSDACSB4710:
	.uleb128 .LEHB0-.LFB4710
	.uleb128 .LEHE0-.LEHB0
	.uleb128 .L107-.LFB4710
	.uleb128 0
	.uleb128 .LEHB1-.LFB4710
	.uleb128 .LEHE1-.LEHB1
	.uleb128 0
	.uleb128 0
.LLSDACSE4710:
	.section	.text$_ZN8CalcflowC1ESt6vectorI8CalcStepSaIS1_EE,"x"
	.linkonce discard
	.seh_endproc
	.section	.text$_ZNK8Calcflow10hasCurrentEv,"x"
	.linkonce discard
	.align 2
	.globl	_ZNK8Calcflow10hasCurrentEv
	.def	_ZNK8Calcflow10hasCurrentEv;	.scl	2;	.type	32;	.endef
	.seh_proc	_ZNK8Calcflow10hasCurrentEv
_ZNK8Calcflow10hasCurrentEv:
.LFB4711:
	push	rbp	 #
	.seh_pushreg	rbp
	push	rbx	 #
	.seh_pushreg	rbx
	sub	rsp, 40	 #,
	.seh_stackalloc	40
	lea	rbp, 32[rsp]	 #,
	.seh_setframe	rbp, 32
	.seh_endprologue
	mov	QWORD PTR 32[rbp], rcx	 # this, this
 # D:/programs/partical_life/calcflow.cpp:30: 	bool hasCurrent() const { return idx < flow.size(); }
	mov	rax, QWORD PTR 32[rbp]	 # tmp103, this
	mov	rbx, QWORD PTR 24[rax]	 # _1, this_5(D)->idx
 # D:/programs/partical_life/calcflow.cpp:30: 	bool hasCurrent() const { return idx < flow.size(); }
	mov	rax, QWORD PTR 32[rbp]	 # _2, this
	mov	rcx, rax	 #, _2
	call	_ZNKSt6vectorI8CalcStepSaIS0_EE4sizeEv	 #
 # D:/programs/partical_life/calcflow.cpp:30: 	bool hasCurrent() const { return idx < flow.size(); }
	cmp	rbx, rax	 # _1, _3
	setb	al	 #, _7
 # D:/programs/partical_life/calcflow.cpp:30: 	bool hasCurrent() const { return idx < flow.size(); }
	add	rsp, 40	 #,
	pop	rbx	 #
	pop	rbp	 #
	ret	
	.seh_endproc
	.section	.text$_ZN8Calcflow7currentEv,"x"
	.linkonce discard
	.align 2
	.globl	_ZN8Calcflow7currentEv
	.def	_ZN8Calcflow7currentEv;	.scl	2;	.type	32;	.endef
	.seh_proc	_ZN8Calcflow7currentEv
_ZN8Calcflow7currentEv:
.LFB4712:
	push	rbp	 #
	.seh_pushreg	rbp
	mov	rbp, rsp	 #,
	.seh_setframe	rbp, 0
	sub	rsp, 32	 #,
	.seh_stackalloc	32
	.seh_endprologue
	mov	QWORD PTR 16[rbp], rcx	 # this, this
 # D:/programs/partical_life/calcflow.cpp:31: 	CalcStep& current() { return flow[idx]; }
	mov	rax, QWORD PTR 16[rbp]	 # _1, this
 # D:/programs/partical_life/calcflow.cpp:31: 	CalcStep& current() { return flow[idx]; }
	mov	rdx, QWORD PTR 16[rbp]	 # tmp102, this
	mov	rdx, QWORD PTR 24[rdx]	 # _2, this_3(D)->idx
 # D:/programs/partical_life/calcflow.cpp:31: 	CalcStep& current() { return flow[idx]; }
	mov	rcx, rax	 #, _1
	call	_ZNSt6vectorI8CalcStepSaIS0_EEixEy	 #
 # D:/programs/partical_life/calcflow.cpp:31: 	CalcStep& current() { return flow[idx]; }
	add	rsp, 32	 #,
	pop	rbp	 #
	ret	
	.seh_endproc
	.section	.text$_ZN8Calcflow20pushResultAndAdvanceERKSt7complexIdE,"x"
	.linkonce discard
	.align 2
	.globl	_ZN8Calcflow20pushResultAndAdvanceERKSt7complexIdE
	.def	_ZN8Calcflow20pushResultAndAdvanceERKSt7complexIdE;	.scl	2;	.type	32;	.endef
	.seh_proc	_ZN8Calcflow20pushResultAndAdvanceERKSt7complexIdE
_ZN8Calcflow20pushResultAndAdvanceERKSt7complexIdE:
.LFB4713:
	push	rbp	 #
	.seh_pushreg	rbp
	push	rbx	 #
	.seh_pushreg	rbx
	sub	rsp, 56	 #,
	.seh_stackalloc	56
	lea	rbp, 48[rsp]	 #,
	.seh_setframe	rbp, 48
	.seh_endprologue
	mov	QWORD PTR 32[rbp], rcx	 # this, this
	mov	QWORD PTR 40[rbp], rdx	 # v, v
 # D:/programs/partical_life/calcflow.cpp:35: 		if (idx < flow.size()) {
	mov	rax, QWORD PTR 32[rbp]	 # tmp115, this
	mov	rbx, QWORD PTR 24[rax]	 # _1, this_21(D)->idx
 # D:/programs/partical_life/calcflow.cpp:35: 		if (idx < flow.size()) {
	mov	rax, QWORD PTR 32[rbp]	 # _2, this
	mov	rcx, rax	 #, _2
	call	_ZNKSt6vectorI8CalcStepSaIS0_EE4sizeEv	 #
 # D:/programs/partical_life/calcflow.cpp:35: 		if (idx < flow.size()) {
	cmp	rbx, rax	 # _1, _3
	setb	al	 #, retval.322_23
 # D:/programs/partical_life/calcflow.cpp:35: 		if (idx < flow.size()) {
	test	al, al	 # retval.322_23
	je	.L114	 #,
 # D:/programs/partical_life/calcflow.cpp:36: 			int to = flow[idx].res_ptr;
	mov	rax, QWORD PTR 32[rbp]	 # _4, this
 # D:/programs/partical_life/calcflow.cpp:36: 			int to = flow[idx].res_ptr;
	mov	rdx, QWORD PTR 32[rbp]	 # tmp116, this
	mov	rdx, QWORD PTR 24[rdx]	 # _5, this_21(D)->idx
 # D:/programs/partical_life/calcflow.cpp:36: 			int to = flow[idx].res_ptr;
	mov	rcx, rax	 #, _4
	call	_ZNSt6vectorI8CalcStepSaIS0_EEixEy	 #
 # D:/programs/partical_life/calcflow.cpp:36: 			int to = flow[idx].res_ptr;
	mov	eax, DWORD PTR 80[rax]	 # tmp117, _6->res_ptr
	mov	DWORD PTR -4[rbp], eax	 # to, tmp117
 # D:/programs/partical_life/calcflow.cpp:37: 			if (to >= 0 && to < static_cast<int>(flow.size())) {
	cmp	DWORD PTR -4[rbp], 0	 # to,
	js	.L115	 #,
 # D:/programs/partical_life/calcflow.cpp:37: 			if (to >= 0 && to < static_cast<int>(flow.size())) {
	mov	rax, QWORD PTR 32[rbp]	 # _7, this
	mov	rcx, rax	 #, _7
	call	_ZNKSt6vectorI8CalcStepSaIS0_EE4sizeEv	 #
 # D:/programs/partical_life/calcflow.cpp:37: 			if (to >= 0 && to < static_cast<int>(flow.size())) {
	cmp	DWORD PTR -4[rbp], eax	 # to, _9
	jge	.L115	 #,
 # D:/programs/partical_life/calcflow.cpp:37: 			if (to >= 0 && to < static_cast<int>(flow.size())) {
	mov	eax, 1	 # iftmp.324_16,
 # D:/programs/partical_life/calcflow.cpp:37: 			if (to >= 0 && to < static_cast<int>(flow.size())) {
	jmp	.L116	 #
.L115:
 # D:/programs/partical_life/calcflow.cpp:37: 			if (to >= 0 && to < static_cast<int>(flow.size())) {
	mov	eax, 0	 # iftmp.324_16,
.L116:
 # D:/programs/partical_life/calcflow.cpp:37: 			if (to >= 0 && to < static_cast<int>(flow.size())) {
	test	al, al	 # iftmp.324_16
	je	.L114	 #,
 # D:/programs/partical_life/calcflow.cpp:38: 				flow[to].args.push_back(v);
	mov	rax, QWORD PTR 32[rbp]	 # _10, this
	mov	edx, DWORD PTR -4[rbp]	 # tmp118, to
	movsx	rdx, edx	 # _11, tmp118
	mov	rcx, rax	 #, _10
	call	_ZNSt6vectorI8CalcStepSaIS0_EEixEy	 #
 # D:/programs/partical_life/calcflow.cpp:38: 				flow[to].args.push_back(v);
	lea	rcx, 8[rax]	 # _13,
	mov	rax, QWORD PTR 40[rbp]	 # tmp119, v
	mov	rdx, rax	 #, tmp119
	call	_ZNSt6vectorISt7complexIdESaIS1_EE9push_backERKS1_	 #
.L114:
 # D:/programs/partical_life/calcflow.cpp:41: 		++idx;
	mov	rax, QWORD PTR 32[rbp]	 # tmp120, this
	mov	rax, QWORD PTR 24[rax]	 # _14, this_21(D)->idx
 # D:/programs/partical_life/calcflow.cpp:41: 		++idx;
	lea	rdx, 1[rax]	 # _15,
	mov	rax, QWORD PTR 32[rbp]	 # tmp121, this
	mov	QWORD PTR 24[rax], rdx	 # this_21(D)->idx, _15
 # D:/programs/partical_life/calcflow.cpp:42: 	}
	nop	
	add	rsp, 56	 #,
	pop	rbx	 #
	pop	rbp	 #
	ret	
	.seh_endproc
	.section	.text$_ZN8Calcflow5resetEv,"x"
	.linkonce discard
	.align 2
	.globl	_ZN8Calcflow5resetEv
	.def	_ZN8Calcflow5resetEv;	.scl	2;	.type	32;	.endef
	.seh_proc	_ZN8Calcflow5resetEv
_ZN8Calcflow5resetEv:
.LFB4714:
	push	rbp	 #
	.seh_pushreg	rbp
	push	rbx	 #
	.seh_pushreg	rbx
	sub	rsp, 72	 #,
	.seh_stackalloc	72
	lea	rbp, 64[rsp]	 #,
	.seh_setframe	rbp, 64
	.seh_endprologue
	mov	QWORD PTR 32[rbp], rcx	 # this, this
 # D:/programs/partical_life/calcflow.cpp:46: 		idx = 0;
	mov	rax, QWORD PTR 32[rbp]	 # tmp108, this
	mov	QWORD PTR 24[rax], 0	 # this_13(D)->idx,
 # D:/programs/partical_life/calcflow.cpp:47: 		for (size_t k = 0; k < flow.size(); ++k) {
	mov	QWORD PTR -8[rbp], 0	 # k,
 # D:/programs/partical_life/calcflow.cpp:47: 		for (size_t k = 0; k < flow.size(); ++k) {
	jmp	.L118	 #
.L119:
 # D:/programs/partical_life/calcflow.cpp:48: 			flow[k].args = initial_args[k];
	mov	rax, QWORD PTR 32[rbp]	 # tmp109, this
	lea	rcx, 32[rax]	 # _1,
	mov	rax, QWORD PTR -8[rbp]	 # tmp110, k
	mov	rdx, rax	 #, tmp110
	call	_ZNSt6vectorIS_ISt7complexIdESaIS1_EESaIS3_EEixEy	 #
	mov	rbx, rax	 # _2,
 # D:/programs/partical_life/calcflow.cpp:48: 			flow[k].args = initial_args[k];
	mov	rax, QWORD PTR 32[rbp]	 # _3, this
	mov	rdx, QWORD PTR -8[rbp]	 # tmp111, k
	mov	rcx, rax	 #, _3
	call	_ZNSt6vectorI8CalcStepSaIS0_EEixEy	 #
 # D:/programs/partical_life/calcflow.cpp:48: 			flow[k].args = initial_args[k];
	add	rax, 8	 # _5,
	mov	rdx, rbx	 #, _2
	mov	rcx, rax	 #, _5
	call	_ZNSt6vectorISt7complexIdESaIS1_EEaSERKS3_	 #
 # D:/programs/partical_life/calcflow.cpp:49: 			flow[k].res  = Complex{0.0, 0.0};
	lea	rax, -32[rbp]	 # tmp112,
	pxor	xmm2, xmm2	 #
	pxor	xmm1, xmm1	 #
	mov	rcx, rax	 #, tmp112
	call	_ZNSt7complexIdEC1Edd	 #
 # D:/programs/partical_life/calcflow.cpp:49: 			flow[k].res  = Complex{0.0, 0.0};
	mov	rax, QWORD PTR 32[rbp]	 # _6, this
	mov	rdx, QWORD PTR -8[rbp]	 # tmp113, k
	mov	rcx, rax	 #, _6
	call	_ZNSt6vectorI8CalcStepSaIS0_EEixEy	 #
 # D:/programs/partical_life/calcflow.cpp:49: 			flow[k].res  = Complex{0.0, 0.0};
	movsd	xmm0, QWORD PTR -32[rbp]	 # tmp114, D.95677
	movsd	QWORD PTR 64[rax], xmm0	 # _7->res, tmp114
	movsd	xmm0, QWORD PTR -24[rbp]	 # tmp115, D.95677
	movsd	QWORD PTR 72[rax], xmm0	 # _7->res, tmp115
 # D:/programs/partical_life/calcflow.cpp:47: 		for (size_t k = 0; k < flow.size(); ++k) {
	add	QWORD PTR -8[rbp], 1	 # k,
.L118:
 # D:/programs/partical_life/calcflow.cpp:47: 		for (size_t k = 0; k < flow.size(); ++k) {
	mov	rax, QWORD PTR 32[rbp]	 # _8, this
	mov	rcx, rax	 #, _8
	call	_ZNKSt6vectorI8CalcStepSaIS0_EE4sizeEv	 #
 # D:/programs/partical_life/calcflow.cpp:47: 		for (size_t k = 0; k < flow.size(); ++k) {
	cmp	QWORD PTR -8[rbp], rax	 # k, _9
	setb	al	 #, retval.271_17
	test	al, al	 # retval.271_17
	jne	.L119	 #,
 # D:/programs/partical_life/calcflow.cpp:51: 	}
	nop	
	nop	
	add	rsp, 72	 #,
	pop	rbx	 #
	pop	rbp	 #
	ret	
	.seh_endproc
	.section	.text$_ZNSt8__detail15_Hash_code_baseINSt7__cxx1112basic_stringIcSt11char_traitsIcESaIcEEESt4pairIKS6_St7complexIdEENS_10_Select1stESt4hashIS6_ENS_18_Mod_range_hashingENS_20_Default_ranged_hashELb1EEC2Ev,"x"
	.linkonce discard
	.align 2
	.globl	_ZNSt8__detail15_Hash_code_baseINSt7__cxx1112basic_stringIcSt11char_traitsIcESaIcEEESt4pairIKS6_St7complexIdEENS_10_Select1stESt4hashIS6_ENS_18_Mod_range_hashingENS_20_Default_ranged_hashELb1EEC2Ev
	.def	_ZNSt8__detail15_Hash_code_baseINSt7__cxx1112basic_stringIcSt11char_traitsIcESaIcEEESt4pairIKS6_St7complexIdEENS_10_Select1stESt4hashIS6_ENS_18_Mod_range_hashingENS_20_Default_ranged_hashELb1EEC2Ev;	.scl	2;	.type	32;	.endef
	.seh_proc	_ZNSt8__detail15_Hash_code_baseINSt7__cxx1112basic_stringIcSt11char_traitsIcESaIcEEESt4pairIKS6_St7complexIdEENS_10_Select1stESt4hashIS6_ENS_18_Mod_range_hashingENS_20_Default_ranged_hashELb1EEC2Ev
_ZNSt8__detail15_Hash_code_baseINSt7__cxx1112basic_stringIcSt11char_traitsIcESaIcEEESt4pairIKS6_St7complexIdEENS_10_Select1stESt4hashIS6_ENS_18_Mod_range_hashingENS_20_Default_ranged_hashELb1EEC2Ev:
.LFB4719:
	push	rbp	 #
	.seh_pushreg	rbp
	mov	rbp, rsp	 #,
	.seh_setframe	rbp, 0
	.seh_endprologue
	mov	QWORD PTR 16[rbp], rcx	 # this, this
 # D:/mingw/mingw64/include/c++/15.1.0/bits/hashtable_policy.h:1062:       _Hash_code_base() = default;
	nop	
	pop	rbp	 #
	ret	
	.seh_endproc
	.section	.text$_ZNSt8__detail15_Hashtable_baseINSt7__cxx1112basic_stringIcSt11char_traitsIcESaIcEEESt4pairIKS6_St7complexIdEENS_10_Select1stESt8equal_toIS6_ESt4hashIS6_ENS_18_Mod_range_hashingENS_20_Default_ranged_hashENS_17_Hashtable_traitsILb1ELb0ELb1EEEEC2Ev,"x"
	.linkonce discard
	.align 2
	.globl	_ZNSt8__detail15_Hashtable_baseINSt7__cxx1112basic_stringIcSt11char_traitsIcESaIcEEESt4pairIKS6_St7complexIdEENS_10_Select1stESt8equal_toIS6_ESt4hashIS6_ENS_18_Mod_range_hashingENS_20_Default_ranged_hashENS_17_Hashtable_traitsILb1ELb0ELb1EEEEC2Ev
	.def	_ZNSt8__detail15_Hashtable_baseINSt7__cxx1112basic_stringIcSt11char_traitsIcESaIcEEESt4pairIKS6_St7complexIdEENS_10_Select1stESt8equal_toIS6_ESt4hashIS6_ENS_18_Mod_range_hashingENS_20_Default_ranged_hashENS_17_Hashtable_traitsILb1ELb0ELb1EEEEC2Ev;	.scl	2;	.type	32;	.endef
	.seh_proc	_ZNSt8__detail15_Hashtable_baseINSt7__cxx1112basic_stringIcSt11char_traitsIcESaIcEEESt4pairIKS6_St7complexIdEENS_10_Select1stESt8equal_toIS6_ESt4hashIS6_ENS_18_Mod_range_hashingENS_20_Default_ranged_hashENS_17_Hashtable_traitsILb1ELb0ELb1EEEEC2Ev
_ZNSt8__detail15_Hashtable_baseINSt7__cxx1112basic_stringIcSt11char_traitsIcESaIcEEESt4pairIKS6_St7complexIdEENS_10_Select1stESt8equal_toIS6_ESt4hashIS6_ENS_18_Mod_range_hashingENS_20_Default_ranged_hashENS_17_Hashtable_traitsILb1ELb0ELb1EEEEC2Ev:
.LFB4721:
	push	rbp	 #
	.seh_pushreg	rbp
	mov	rbp, rsp	 #,
	.seh_setframe	rbp, 0
	sub	rsp, 32	 #,
	.seh_stackalloc	32
	.seh_endprologue
	mov	QWORD PTR 16[rbp], rcx	 # this, this
 # D:/mingw/mingw64/include/c++/15.1.0/bits/hashtable_policy.h:1395:       _Hashtable_base() = default;
	mov	rax, QWORD PTR 16[rbp]	 # tmp98, this
	mov	rcx, rax	 #, tmp98
	call	_ZNSt8__detail15_Hash_code_baseINSt7__cxx1112basic_stringIcSt11char_traitsIcESaIcEEESt4pairIKS6_St7complexIdEENS_10_Select1stESt4hashIS6_ENS_18_Mod_range_hashingENS_20_Default_ranged_hashELb1EEC2Ev	 #
	nop	
	add	rsp, 32	 #,
	pop	rbp	 #
	ret	
	.seh_endproc
	.section	.text$_ZNSt8__detail21_Hashtable_ebo_helperISaINS_10_Hash_nodeISt4pairIKNSt7__cxx1112basic_stringIcSt11char_traitsIcESaIcEEESt7complexIdEELb1EEEELb1EED1Ev,"x"
	.linkonce discard
	.align 2
	.globl	_ZNSt8__detail21_Hashtable_ebo_helperISaINS_10_Hash_nodeISt4pairIKNSt7__cxx1112basic_stringIcSt11char_traitsIcESaIcEEESt7complexIdEELb1EEEELb1EED1Ev
	.def	_ZNSt8__detail21_Hashtable_ebo_helperISaINS_10_Hash_nodeISt4pairIKNSt7__cxx1112basic_stringIcSt11char_traitsIcESaIcEEESt7complexIdEELb1EEEELb1EED1Ev;	.scl	2;	.type	32;	.endef
	.seh_proc	_ZNSt8__detail21_Hashtable_ebo_helperISaINS_10_Hash_nodeISt4pairIKNSt7__cxx1112basic_stringIcSt11char_traitsIcESaIcEEESt7complexIdEELb1EEEELb1EED1Ev
_ZNSt8__detail21_Hashtable_ebo_helperISaINS_10_Hash_nodeISt4pairIKNSt7__cxx1112basic_stringIcSt11char_traitsIcESaIcEEESt7complexIdEELb1EEEELb1EED1Ev:
.LFB4726:
	push	rbp	 #
	.seh_pushreg	rbp
	mov	rbp, rsp	 #,
	.seh_setframe	rbp, 0
	sub	rsp, 48	 #,
	.seh_stackalloc	48
	.seh_endprologue
	mov	QWORD PTR 16[rbp], rcx	 # this, this
 # D:/mingw/mingw64/include/c++/15.1.0/bits/hashtable_policy.h:1013:     struct _Hashtable_ebo_helper
	mov	rax, QWORD PTR 16[rbp]	 # _1, this
	mov	QWORD PTR -8[rbp], rax	 # this, _1
 # D:/mingw/mingw64/include/c++/15.1.0/bits/allocator.h:189:       ~allocator() _GLIBCXX_NOTHROW { }
	mov	rax, QWORD PTR -8[rbp]	 # tmp99, this
	mov	rcx, rax	 #, tmp99
	call	_ZNSt15__new_allocatorINSt8__detail10_Hash_nodeISt4pairIKNSt7__cxx1112basic_stringIcSt11char_traitsIcESaIcEEESt7complexIdEELb1EEEED2Ev	 #
	nop	
 # D:/mingw/mingw64/include/c++/15.1.0/bits/hashtable_policy.h:1013:     struct _Hashtable_ebo_helper
	nop	
	add	rsp, 48	 #,
	pop	rbp	 #
	ret	
	.seh_endproc
	.section	.text$_ZNSt8__detail16_Hashtable_allocISaINS_10_Hash_nodeISt4pairIKNSt7__cxx1112basic_stringIcSt11char_traitsIcESaIcEEESt7complexIdEELb1EEEEEC2Ev,"x"
	.linkonce discard
	.align 2
	.globl	_ZNSt8__detail16_Hashtable_allocISaINS_10_Hash_nodeISt4pairIKNSt7__cxx1112basic_stringIcSt11char_traitsIcESaIcEEESt7complexIdEELb1EEEEEC2Ev
	.def	_ZNSt8__detail16_Hashtable_allocISaINS_10_Hash_nodeISt4pairIKNSt7__cxx1112basic_stringIcSt11char_traitsIcESaIcEEESt7complexIdEELb1EEEEEC2Ev;	.scl	2;	.type	32;	.endef
	.seh_proc	_ZNSt8__detail16_Hashtable_allocISaINS_10_Hash_nodeISt4pairIKNSt7__cxx1112basic_stringIcSt11char_traitsIcESaIcEEESt7complexIdEELb1EEEEEC2Ev
_ZNSt8__detail16_Hashtable_allocISaINS_10_Hash_nodeISt4pairIKNSt7__cxx1112basic_stringIcSt11char_traitsIcESaIcEEESt7complexIdEELb1EEEEEC2Ev:
.LFB4727:
	push	rbp	 #
	.seh_pushreg	rbp
	mov	rbp, rsp	 #,
	.seh_setframe	rbp, 0
	sub	rsp, 16	 #,
	.seh_stackalloc	16
	.seh_endprologue
	mov	QWORD PTR 16[rbp], rcx	 # this, this
 # D:/mingw/mingw64/include/c++/15.1.0/bits/hashtable_policy.h:1500:       _Hashtable_alloc() = default;
	mov	rax, QWORD PTR 16[rbp]	 # _1, this
	mov	QWORD PTR -8[rbp], rax	 # this, _1
	mov	rax, QWORD PTR -8[rbp]	 # tmp100, this
	mov	QWORD PTR -16[rbp], rax	 # this, tmp100
 # D:/mingw/mingw64/include/c++/15.1.0/bits/new_allocator.h:88:       __new_allocator() _GLIBCXX_USE_NOEXCEPT { }
	nop	
 # D:/mingw/mingw64/include/c++/15.1.0/bits/allocator.h:168:       allocator() _GLIBCXX_NOTHROW { }
	nop	
 # D:/mingw/mingw64/include/c++/15.1.0/bits/hashtable_policy.h:1500:       _Hashtable_alloc() = default;
	nop	
	add	rsp, 16	 #,
	pop	rbp	 #
	ret	
	.seh_endproc
	.section	.text$_ZNSt8__detail16_Hashtable_allocISaINS_10_Hash_nodeISt4pairIKNSt7__cxx1112basic_stringIcSt11char_traitsIcESaIcEEESt7complexIdEELb1EEEEED2Ev,"x"
	.linkonce discard
	.align 2
	.globl	_ZNSt8__detail16_Hashtable_allocISaINS_10_Hash_nodeISt4pairIKNSt7__cxx1112basic_stringIcSt11char_traitsIcESaIcEEESt7complexIdEELb1EEEEED2Ev
	.def	_ZNSt8__detail16_Hashtable_allocISaINS_10_Hash_nodeISt4pairIKNSt7__cxx1112basic_stringIcSt11char_traitsIcESaIcEEESt7complexIdEELb1EEEEED2Ev;	.scl	2;	.type	32;	.endef
	.seh_proc	_ZNSt8__detail16_Hashtable_allocISaINS_10_Hash_nodeISt4pairIKNSt7__cxx1112basic_stringIcSt11char_traitsIcESaIcEEESt7complexIdEELb1EEEEED2Ev
_ZNSt8__detail16_Hashtable_allocISaINS_10_Hash_nodeISt4pairIKNSt7__cxx1112basic_stringIcSt11char_traitsIcESaIcEEESt7complexIdEELb1EEEEED2Ev:
.LFB4730:
	push	rbp	 #
	.seh_pushreg	rbp
	mov	rbp, rsp	 #,
	.seh_setframe	rbp, 0
	sub	rsp, 32	 #,
	.seh_stackalloc	32
	.seh_endprologue
	mov	QWORD PTR 16[rbp], rcx	 # this, this
 # D:/mingw/mingw64/include/c++/15.1.0/bits/hashtable_policy.h:1472:     struct _Hashtable_alloc
	mov	rax, QWORD PTR 16[rbp]	 # _1, this
	mov	rcx, rax	 #, _1
	call	_ZNSt8__detail21_Hashtable_ebo_helperISaINS_10_Hash_nodeISt4pairIKNSt7__cxx1112basic_stringIcSt11char_traitsIcESaIcEEESt7complexIdEELb1EEEELb1EED1Ev	 #
	nop	
	add	rsp, 32	 #,
	pop	rbp	 #
	ret	
	.seh_endproc
	.section	.text$_ZNSt10_HashtableINSt7__cxx1112basic_stringIcSt11char_traitsIcESaIcEEESt4pairIKS5_St7complexIdEESaISA_ENSt8__detail10_Select1stESt8equal_toIS5_ESt4hashIS5_ENSC_18_Mod_range_hashingENSC_20_Default_ranged_hashENSC_20_Prime_rehash_policyENSC_17_Hashtable_traitsILb1ELb0ELb1EEEEC1Ev,"x"
	.linkonce discard
	.align 2
	.globl	_ZNSt10_HashtableINSt7__cxx1112basic_stringIcSt11char_traitsIcESaIcEEESt4pairIKS5_St7complexIdEESaISA_ENSt8__detail10_Select1stESt8equal_toIS5_ESt4hashIS5_ENSC_18_Mod_range_hashingENSC_20_Default_ranged_hashENSC_20_Prime_rehash_policyENSC_17_Hashtable_traitsILb1ELb0ELb1EEEEC1Ev
	.def	_ZNSt10_HashtableINSt7__cxx1112basic_stringIcSt11char_traitsIcESaIcEEESt4pairIKS5_St7complexIdEESaISA_ENSt8__detail10_Select1stESt8equal_toIS5_ESt4hashIS5_ENSC_18_Mod_range_hashingENSC_20_Default_ranged_hashENSC_20_Prime_rehash_policyENSC_17_Hashtable_traitsILb1ELb0ELb1EEEEC1Ev;	.scl	2;	.type	32;	.endef
	.seh_proc	_ZNSt10_HashtableINSt7__cxx1112basic_stringIcSt11char_traitsIcESaIcEEESt4pairIKS5_St7complexIdEESaISA_ENSt8__detail10_Select1stESt8equal_toIS5_ESt4hashIS5_ENSC_18_Mod_range_hashingENSC_20_Default_ranged_hashENSC_20_Prime_rehash_policyENSC_17_Hashtable_traitsILb1ELb0ELb1EEEEC1Ev
_ZNSt10_HashtableINSt7__cxx1112basic_stringIcSt11char_traitsIcESaIcEEESt4pairIKS5_St7complexIdEESaISA_ENSt8__detail10_Select1stESt8equal_toIS5_ESt4hashIS5_ENSC_18_Mod_range_hashingENSC_20_Default_ranged_hashENSC_20_Prime_rehash_policyENSC_17_Hashtable_traitsILb1ELb0ELb1EEEEC1Ev:
.LFB4733:
	push	rbp	 #
	.seh_pushreg	rbp
	mov	rbp, rsp	 #,
	.seh_setframe	rbp, 0
	sub	rsp, 32	 #,
	.seh_stackalloc	32
	.seh_endprologue
	mov	QWORD PTR 16[rbp], rcx	 # this, this
 # D:/mingw/mingw64/include/c++/15.1.0/bits/hashtable.h:513:       _Hashtable() = default;
	mov	rax, QWORD PTR 16[rbp]	 # tmp101, this
	mov	rcx, rax	 #, tmp101
	call	_ZNSt8__detail15_Hashtable_baseINSt7__cxx1112basic_stringIcSt11char_traitsIcESaIcEEESt4pairIKS6_St7complexIdEENS_10_Select1stESt8equal_toIS6_ESt4hashIS6_ENS_18_Mod_range_hashingENS_20_Default_ranged_hashENS_17_Hashtable_traitsILb1ELb0ELb1EEEEC2Ev	 #
 # D:/mingw/mingw64/include/c++/15.1.0/bits/hashtable.h:513:       _Hashtable() = default;
	mov	rax, QWORD PTR 16[rbp]	 # tmp102, this
	mov	rcx, rax	 #, tmp102
	call	_ZNSt8__detail16_Hashtable_allocISaINS_10_Hash_nodeISt4pairIKNSt7__cxx1112basic_stringIcSt11char_traitsIcESaIcEEESt7complexIdEELb1EEEEEC2Ev	 #
 # D:/mingw/mingw64/include/c++/15.1.0/bits/hashtable.h:513:       _Hashtable() = default;
	mov	rax, QWORD PTR 16[rbp]	 # tmp103, this
	lea	rdx, 48[rax]	 # _1,
	mov	rax, QWORD PTR 16[rbp]	 # tmp104, this
	mov	QWORD PTR [rax], rdx	 # this_5(D)->_M_buckets, _1
	mov	rax, QWORD PTR 16[rbp]	 # tmp105, this
	mov	QWORD PTR 8[rax], 1	 # this_5(D)->_M_bucket_count,
	mov	rax, QWORD PTR 16[rbp]	 # tmp106, this
	add	rax, 16	 # _2,
	mov	rcx, rax	 #, _2
	call	_ZNSt8__detail15_Hash_node_baseC1Ev	 #
 # D:/mingw/mingw64/include/c++/15.1.0/bits/hashtable.h:513:       _Hashtable() = default;
	mov	rax, QWORD PTR 16[rbp]	 # tmp107, this
	mov	QWORD PTR 24[rax], 0	 # this_5(D)->_M_element_count,
	mov	rax, QWORD PTR 16[rbp]	 # tmp108, this
	add	rax, 32	 # _3,
	movss	xmm1, DWORD PTR .LC3[rip]	 #,
	mov	rcx, rax	 #, _3
	call	_ZNSt8__detail20_Prime_rehash_policyC1Ef	 #
 # D:/mingw/mingw64/include/c++/15.1.0/bits/hashtable.h:513:       _Hashtable() = default;
	mov	rax, QWORD PTR 16[rbp]	 # tmp109, this
	mov	QWORD PTR 48[rax], 0	 # this_5(D)->_M_single_bucket,
 # D:/mingw/mingw64/include/c++/15.1.0/bits/hashtable.h:513:       _Hashtable() = default;
	nop	
	add	rsp, 32	 #,
	pop	rbp	 #
	ret	
	.seh_endproc
	.section	.text$_ZNSt13unordered_mapINSt7__cxx1112basic_stringIcSt11char_traitsIcESaIcEEESt7complexIdESt4hashIS5_ESt8equal_toIS5_ESaISt4pairIKS5_S7_EEEC1Ev,"x"
	.linkonce discard
	.align 2
	.globl	_ZNSt13unordered_mapINSt7__cxx1112basic_stringIcSt11char_traitsIcESaIcEEESt7complexIdESt4hashIS5_ESt8equal_toIS5_ESaISt4pairIKS5_S7_EEEC1Ev
	.def	_ZNSt13unordered_mapINSt7__cxx1112basic_stringIcSt11char_traitsIcESaIcEEESt7complexIdESt4hashIS5_ESt8equal_toIS5_ESaISt4pairIKS5_S7_EEEC1Ev;	.scl	2;	.type	32;	.endef
	.seh_proc	_ZNSt13unordered_mapINSt7__cxx1112basic_stringIcSt11char_traitsIcESaIcEEESt7complexIdESt4hashIS5_ESt8equal_toIS5_ESaISt4pairIKS5_S7_EEEC1Ev
_ZNSt13unordered_mapINSt7__cxx1112basic_stringIcSt11char_traitsIcESaIcEEESt7complexIdESt4hashIS5_ESt8equal_toIS5_ESaISt4pairIKS5_S7_EEEC1Ev:
.LFB4735:
	push	rbp	 #
	.seh_pushreg	rbp
	mov	rbp, rsp	 #,
	.seh_setframe	rbp, 0
	sub	rsp, 32	 #,
	.seh_stackalloc	32
	.seh_endprologue
	mov	QWORD PTR 16[rbp], rcx	 # this, this
 # D:/mingw/mingw64/include/c++/15.1.0/bits/unordered_map.h:151:       unordered_map() = default;
	mov	rax, QWORD PTR 16[rbp]	 # _1, this
	mov	rcx, rax	 #, _1
	call	_ZNSt10_HashtableINSt7__cxx1112basic_stringIcSt11char_traitsIcESaIcEEESt4pairIKS5_St7complexIdEESaISA_ENSt8__detail10_Select1stESt8equal_toIS5_ESt4hashIS5_ENSC_18_Mod_range_hashingENSC_20_Default_ranged_hashENSC_20_Prime_rehash_policyENSC_17_Hashtable_traitsILb1ELb0ELb1EEEEC1Ev	 #
	nop	
	add	rsp, 32	 #,
	pop	rbp	 #
	ret	
	.seh_endproc
	.section	.text$_ZNSt13unordered_mapINSt7__cxx1112basic_stringIcSt11char_traitsIcESaIcEEESt7complexIdESt4hashIS5_ESt8equal_toIS5_ESaISt4pairIKS5_S7_EEED1Ev,"x"
	.linkonce discard
	.align 2
	.globl	_ZNSt13unordered_mapINSt7__cxx1112basic_stringIcSt11char_traitsIcESaIcEEESt7complexIdESt4hashIS5_ESt8equal_toIS5_ESaISt4pairIKS5_S7_EEED1Ev
	.def	_ZNSt13unordered_mapINSt7__cxx1112basic_stringIcSt11char_traitsIcESaIcEEESt7complexIdESt4hashIS5_ESt8equal_toIS5_ESaISt4pairIKS5_S7_EEED1Ev;	.scl	2;	.type	32;	.endef
	.seh_proc	_ZNSt13unordered_mapINSt7__cxx1112basic_stringIcSt11char_traitsIcESaIcEEESt7complexIdESt4hashIS5_ESt8equal_toIS5_ESaISt4pairIKS5_S7_EEED1Ev
_ZNSt13unordered_mapINSt7__cxx1112basic_stringIcSt11char_traitsIcESaIcEEESt7complexIdESt4hashIS5_ESt8equal_toIS5_ESaISt4pairIKS5_S7_EEED1Ev:
.LFB4739:
	push	rbp	 #
	.seh_pushreg	rbp
	mov	rbp, rsp	 #,
	.seh_setframe	rbp, 0
	sub	rsp, 32	 #,
	.seh_stackalloc	32
	.seh_endprologue
	mov	QWORD PTR 16[rbp], rcx	 # this, this
 # D:/mingw/mingw64/include/c++/15.1.0/bits/unordered_map.h:112:     class unordered_map
	mov	rax, QWORD PTR 16[rbp]	 # _1, this
	mov	rcx, rax	 #, _1
	call	_ZNSt10_HashtableINSt7__cxx1112basic_stringIcSt11char_traitsIcESaIcEEESt4pairIKS5_St7complexIdEESaISA_ENSt8__detail10_Select1stESt8equal_toIS5_ESt4hashIS5_ENSC_18_Mod_range_hashingENSC_20_Default_ranged_hashENSC_20_Prime_rehash_policyENSC_17_Hashtable_traitsILb1ELb0ELb1EEEED1Ev	 #
	nop	
	add	rsp, 32	 #,
	pop	rbp	 #
	ret	
	.seh_endproc
	.section	.text$_ZN8CalcflowD1Ev,"x"
	.linkonce discard
	.align 2
	.globl	_ZN8CalcflowD1Ev
	.def	_ZN8CalcflowD1Ev;	.scl	2;	.type	32;	.endef
	.seh_proc	_ZN8CalcflowD1Ev
_ZN8CalcflowD1Ev:
.LFB4742:
	push	rbp	 #
	.seh_pushreg	rbp
	mov	rbp, rsp	 #,
	.seh_setframe	rbp, 0
	sub	rsp, 32	 #,
	.seh_stackalloc	32
	.seh_endprologue
	mov	QWORD PTR 16[rbp], rcx	 # this, this
 # D:/programs/partical_life/calcflow.cpp:19: struct Calcflow {
	mov	rax, QWORD PTR 16[rbp]	 # tmp100, this
	add	rax, 32	 # _1,
	mov	rcx, rax	 #, _1
	call	_ZNSt6vectorIS_ISt7complexIdESaIS1_EESaIS3_EED1Ev	 #
 # D:/programs/partical_life/calcflow.cpp:19: struct Calcflow {
	mov	rax, QWORD PTR 16[rbp]	 # _2, this
	mov	rcx, rax	 #, _2
	call	_ZNSt6vectorI8CalcStepSaIS0_EED1Ev	 #
 # D:/programs/partical_life/calcflow.cpp:19: struct Calcflow {
	nop	
	add	rsp, 32	 #,
	pop	rbp	 #
	ret	
	.seh_endproc
	.section	.text$_ZN4CalcC1ESt6vectorI8CalcStepSaIS1_EE,"x"
	.linkonce discard
	.align 2
	.globl	_ZN4CalcC1ESt6vectorI8CalcStepSaIS1_EE
	.def	_ZN4CalcC1ESt6vectorI8CalcStepSaIS1_EE;	.scl	2;	.type	32;	.endef
	.seh_proc	_ZN4CalcC1ESt6vectorI8CalcStepSaIS1_EE
_ZN4CalcC1ESt6vectorI8CalcStepSaIS1_EE:
.LFB4744:
	push	rbp	 #
	.seh_pushreg	rbp
	push	rbx	 #
	.seh_pushreg	rbx
	sub	rsp, 72	 #,
	.seh_stackalloc	72
	lea	rbp, 64[rsp]	 #,
	.seh_setframe	rbp, 64
	.seh_endprologue
	mov	QWORD PTR 32[rbp], rcx	 # this, this
	mov	QWORD PTR 40[rbp], rdx	 # steps, steps
 # D:/programs/partical_life/calcflow.cpp:58: 	explicit Calc(std::vector<CalcStep> steps) : calcflow(std::move(steps)) {}
	mov	rax, QWORD PTR 32[rbp]	 # tmp104, this
	pxor	xmm0, xmm0	 # tmp105
	movups	XMMWORD PTR [rax], xmm0	 # this_7(D)->variables, tmp105
	movups	XMMWORD PTR 16[rax], xmm0	 # this_7(D)->variables, tmp105
	movups	XMMWORD PTR 32[rax], xmm0	 # this_7(D)->variables, tmp105
	movq	QWORD PTR 48[rax], xmm0	 # this_7(D)->variables, tmp105
	mov	rax, QWORD PTR 32[rbp]	 # _1, this
	mov	rcx, rax	 #, _1
	call	_ZNSt13unordered_mapINSt7__cxx1112basic_stringIcSt11char_traitsIcESaIcEEESt7complexIdESt4hashIS5_ESt8equal_toIS5_ESaISt4pairIKS5_S7_EEEC1Ev	 #
 # D:/programs/partical_life/calcflow.cpp:58: 	explicit Calc(std::vector<CalcStep> steps) : calcflow(std::move(steps)) {}
	mov	rax, QWORD PTR 32[rbp]	 # tmp106, this
	lea	rbx, 56[rax]	 # _2,
	mov	rax, QWORD PTR 40[rbp]	 # tmp107, steps
	mov	QWORD PTR -8[rbp], rax	 # __t, tmp107
 # D:/mingw/mingw64/include/c++/15.1.0/bits/move.h:139:     { return static_cast<typename std::remove_reference<_Tp>::type&&>(__t); }
	mov	rdx, QWORD PTR -8[rbp]	 # D.138089, __t
 # D:/programs/partical_life/calcflow.cpp:58: 	explicit Calc(std::vector<CalcStep> steps) : calcflow(std::move(steps)) {}
	lea	rax, -32[rbp]	 # tmp108,
	mov	rcx, rax	 #, tmp108
	call	_ZNSt6vectorI8CalcStepSaIS0_EEC1EOS2_	 #
 # D:/programs/partical_life/calcflow.cpp:58: 	explicit Calc(std::vector<CalcStep> steps) : calcflow(std::move(steps)) {}
	lea	rax, -32[rbp]	 # tmp109,
	mov	rdx, rax	 #, tmp109
	mov	rcx, rbx	 #, _2
.LEHB2:
	call	_ZN8CalcflowC1ESt6vectorI8CalcStepSaIS1_EE	 #
.LEHE2:
 # D:/programs/partical_life/calcflow.cpp:58: 	explicit Calc(std::vector<CalcStep> steps) : calcflow(std::move(steps)) {}
	lea	rax, -32[rbp]	 # tmp110,
	mov	rcx, rax	 #, tmp110
	call	_ZNSt6vectorI8CalcStepSaIS0_EED1Ev	 #
 # D:/programs/partical_life/calcflow.cpp:58: 	explicit Calc(std::vector<CalcStep> steps) : calcflow(std::move(steps)) {}
	jmp	.L133	 #
.L132:
 # D:/programs/partical_life/calcflow.cpp:58: 	explicit Calc(std::vector<CalcStep> steps) : calcflow(std::move(steps)) {}
	mov	rbx, rax	 # tmp113,
	lea	rax, -32[rbp]	 # tmp111,
	mov	rcx, rax	 #, tmp111
	call	_ZNSt6vectorI8CalcStepSaIS0_EED1Ev	 #
 # D:/programs/partical_life/calcflow.cpp:58: 	explicit Calc(std::vector<CalcStep> steps) : calcflow(std::move(steps)) {}
	mov	rax, QWORD PTR 32[rbp]	 # _5, this
	mov	rcx, rax	 #, _5
	call	_ZNSt13unordered_mapINSt7__cxx1112basic_stringIcSt11char_traitsIcESaIcEEESt7complexIdESt4hashIS5_ESt8equal_toIS5_ESaISt4pairIKS5_S7_EEED1Ev	 #
	mov	rax, rbx	 # D.139811, tmp112
	mov	rcx, rax	 #, D.139811
.LEHB3:
	call	_Unwind_Resume	 #
	nop	
.LEHE3:
.L133:
	add	rsp, 72	 #,
	pop	rbx	 #
	pop	rbp	 #
	ret	
	.seh_handler	__gxx_personality_seh0, @unwind, @except
	.seh_handlerdata
.LLSDA4744:
	.byte	0xff
	.byte	0xff
	.byte	0x1
	.uleb128 .LLSDACSE4744-.LLSDACSB4744
.LLSDACSB4744:
	.uleb128 .LEHB2-.LFB4744
	.uleb128 .LEHE2-.LEHB2
	.uleb128 .L132-.LFB4744
	.uleb128 0
	.uleb128 .LEHB3-.LFB4744
	.uleb128 .LEHE3-.LEHB3
	.uleb128 0
	.uleb128 0
.LLSDACSE4744:
	.section	.text$_ZN4CalcC1ESt6vectorI8CalcStepSaIS1_EE,"x"
	.linkonce discard
	.seh_endproc
	.section	.text$_ZN4Calc5c_nanEv,"x"
	.linkonce discard
	.globl	_ZN4Calc5c_nanEv
	.def	_ZN4Calc5c_nanEv;	.scl	2;	.type	32;	.endef
	.seh_proc	_ZN4Calc5c_nanEv
_ZN4Calc5c_nanEv:
.LFB4745:
	push	rbp	 #
	.seh_pushreg	rbp
	push	rbx	 #
	.seh_pushreg	rbx
	sub	rsp, 40	 #,
	.seh_stackalloc	40
	lea	rbp, 32[rsp]	 #,
	.seh_setframe	rbp, 32
	.seh_endprologue
	mov	QWORD PTR 32[rbp], rcx	 # .result_ptr, .result_ptr
 # D:/programs/partical_life/calcflow.cpp:60: 	static Complex c_nan() { return {std::numeric_limits<double>::quiet_NaN(), std::numeric_limits<double>::quiet_NaN()}; }
	call	_ZNSt14numeric_limitsIdE9quiet_NaNEv	 #
	movq	rbx, xmm0	 # _1,
 # D:/programs/partical_life/calcflow.cpp:60: 	static Complex c_nan() { return {std::numeric_limits<double>::quiet_NaN(), std::numeric_limits<double>::quiet_NaN()}; }
	call	_ZNSt14numeric_limitsIdE9quiet_NaNEv	 #
	movq	rdx, xmm0	 # _2,
 # D:/programs/partical_life/calcflow.cpp:60: 	static Complex c_nan() { return {std::numeric_limits<double>::quiet_NaN(), std::numeric_limits<double>::quiet_NaN()}; }
	mov	rax, QWORD PTR 32[rbp]	 # tmp100, .result_ptr
	movq	xmm2, rdx	 #, _2
	movq	xmm1, rbx	 #, _1
	mov	rcx, rax	 #, tmp100
	call	_ZNSt7complexIdEC1Edd	 #
 # D:/programs/partical_life/calcflow.cpp:60: 	static Complex c_nan() { return {std::numeric_limits<double>::quiet_NaN(), std::numeric_limits<double>::quiet_NaN()}; }
	mov	rax, QWORD PTR 32[rbp]	 #, .result_ptr
	add	rsp, 40	 #,
	pop	rbx	 #
	pop	rbp	 #
	ret	
	.seh_endproc
	.section .rdata,"dr"
.LC4:
	.ascii "\345\217\202\346\225\260\344\270\215\350\266\263\0"
	.section	.text$_ZZNK4Calc11computeStepERK8CalcStepENKUlyE_clEy,"x"
	.linkonce discard
	.align 2
	.globl	_ZZNK4Calc11computeStepERK8CalcStepENKUlyE_clEy
	.def	_ZZNK4Calc11computeStepERK8CalcStepENKUlyE_clEy;	.scl	2;	.type	32;	.endef
	.seh_proc	_ZZNK4Calc11computeStepERK8CalcStepENKUlyE_clEy
_ZZNK4Calc11computeStepERK8CalcStepENKUlyE_clEy:
.LFB4747:
	push	rbp	 #
	.seh_pushreg	rbp
	push	rsi	 #
	.seh_pushreg	rsi
	push	rbx	 #
	.seh_pushreg	rbx
	sub	rsp, 32	 #,
	.seh_stackalloc	32
	lea	rbp, 32[rsp]	 #,
	.seh_setframe	rbp, 32
	.seh_endprologue
	mov	QWORD PTR 32[rbp], rcx	 # __closure, __closure
	mov	QWORD PTR 40[rbp], rdx	 # i, i
 # D:/programs/partical_life/calcflow.cpp:72: 			if (i >= s.args.size()) throw std::runtime_error("");
	mov	rax, QWORD PTR 32[rbp]	 # tmp108, __closure
	mov	rax, QWORD PTR [rax]	 # _1, __closure_7(D)->__s
 # D:/programs/partical_life/calcflow.cpp:72: 			if (i >= s.args.size()) throw std::runtime_error("");
	add	rax, 8	 # _2,
	mov	rcx, rax	 #, _2
	call	_ZNKSt6vectorISt7complexIdESaIS1_EE4sizeEv	 #
 # D:/programs/partical_life/calcflow.cpp:72: 			if (i >= s.args.size()) throw std::runtime_error("");
	cmp	QWORD PTR 40[rbp], rax	 # i, _3
	setnb	al	 #, retval.321_10
 # D:/programs/partical_life/calcflow.cpp:72: 			if (i >= s.args.size()) throw std::runtime_error("");
	test	al, al	 # retval.321_10
	je	.L137	 #,
 # D:/programs/partical_life/calcflow.cpp:72: 			if (i >= s.args.size()) throw std::runtime_error("");
	mov	ecx, 16	 #,
	call	__cxa_allocate_exception	 #
	mov	rbx, rax	 # _14, tmp109
 # D:/programs/partical_life/calcflow.cpp:72: 			if (i >= s.args.size()) throw std::runtime_error("");
	lea	rax, .LC4[rip]	 # tmp110,
	mov	rdx, rax	 #, tmp110
	mov	rcx, rbx	 #, _14
.LEHB4:
	call	_ZNSt13runtime_errorC1EPKc	 #
.LEHE4:
 # D:/programs/partical_life/calcflow.cpp:72: 			if (i >= s.args.size()) throw std::runtime_error("");
	mov	rdx, QWORD PTR .refptr._ZNSt13runtime_errorD1Ev[rip]	 # tmp111,
	lea	rax, _ZTISt13runtime_error[rip]	 # tmp112,
	mov	r8, rdx	 #, tmp111
	mov	rdx, rax	 #, tmp112
	mov	rcx, rbx	 #, _14
.LEHB5:
	call	__cxa_throw	 #
.L137:
 # D:/programs/partical_life/calcflow.cpp:73: 			return s.args[i];
	mov	rax, QWORD PTR 32[rbp]	 # tmp113, __closure
	mov	rax, QWORD PTR [rax]	 # _4, __closure_7(D)->__s
 # D:/programs/partical_life/calcflow.cpp:73: 			return s.args[i];
	lea	rcx, 8[rax]	 # _5,
	mov	rax, QWORD PTR 40[rbp]	 # tmp114, i
	mov	rdx, rax	 #, tmp114
	call	_ZNKSt6vectorISt7complexIdESaIS1_EEixEy	 #
	jmp	.L141	 #
.L140:
 # D:/programs/partical_life/calcflow.cpp:72: 			if (i >= s.args.size()) throw std::runtime_error("");
	mov	rsi, rax	 # tmp116,
	mov	rcx, rbx	 #, _14
	call	__cxa_free_exception	 #
	mov	rax, rsi	 # D.139813, tmp116
	mov	rcx, rax	 #, D.139813
	call	_Unwind_Resume	 #
.LEHE5:
.L141:
 # D:/programs/partical_life/calcflow.cpp:74: 		};
	add	rsp, 32	 #,
	pop	rbx	 #
	pop	rsi	 #
	pop	rbp	 #
	ret	
	.seh_handler	__gxx_personality_seh0, @unwind, @except
	.seh_handlerdata
.LLSDA4747:
	.byte	0xff
	.byte	0xff
	.byte	0x1
	.uleb128 .LLSDACSE4747-.LLSDACSB4747
.LLSDACSB4747:
	.uleb128 .LEHB4-.LFB4747
	.uleb128 .LEHE4-.LEHB4
	.uleb128 .L140-.LFB4747
	.uleb128 0
	.uleb128 .LEHB5-.LFB4747
	.uleb128 .LEHE5-.LEHB5
	.uleb128 0
	.uleb128 0
.LLSDACSE4747:
	.section	.text$_ZZNK4Calc11computeStepERK8CalcStepENKUlyE_clEy,"x"
	.linkonce discard
	.seh_endproc
	.section .rdata,"dr"
.LC5:
	.ascii "push \347\274\272\345\260\221\345\217\202\346\225\260\0"
.LC6:
	.ascii "\345\217\230\351\207\217\346\234\252\345\256\232\344\271\211: \0"
.LC8:
	.ascii "pow \351\234\200\350\246\201"
	.ascii "2\344\270\252\345\217\202\346\225\260\0"
.LC9:
	.ascii "log \351\234\200\350\246\201"
	.ascii "2\344\270\252\345\217\202\346\225\260\0"
.LC10:
	.ascii "neg \351\234\200\350\246\201"
	.ascii "1\344\270\252\345\217\202\346\225\260\0"
.LC11:
	.ascii "\346\234\252\347\237\245\346\223\215\344\275\234\347\254\246\0"
	.section	.text$_ZNK4Calc11computeStepERK8CalcStep,"x"
	.linkonce discard
	.align 2
	.globl	_ZNK4Calc11computeStepERK8CalcStep
	.def	_ZNK4Calc11computeStepERK8CalcStep;	.scl	2;	.type	32;	.endef
	.seh_proc	_ZNK4Calc11computeStepERK8CalcStep
_ZNK4Calc11computeStepERK8CalcStep:
.LFB4746:
	push	rbp	 #
	.seh_pushreg	rbp
	push	rsi	 #
	.seh_pushreg	rsi
	push	rbx	 #
	.seh_pushreg	rbx
	sub	rsp, 384	 #,
	.seh_stackalloc	384
	lea	rbp, 128[rsp]	 #,
	.seh_setframe	rbp, 128
	.seh_endprologue
	mov	QWORD PTR 288[rbp], rcx	 # .result_ptr, .result_ptr
	mov	QWORD PTR 296[rbp], rdx	 # this, this
	mov	QWORD PTR 304[rbp], r8	 # s, s
 # D:/programs/partical_life/calcflow.cpp:74: 		};
	mov	rax, QWORD PTR 304[rbp]	 # tmp192, s
	mov	QWORD PTR 16[rbp], rax	 # get.__s, tmp192
 # D:/programs/partical_life/calcflow.cpp:76: 		switch (s.op) {
	mov	rax, QWORD PTR 304[rbp]	 # tmp193, s
	mov	eax, DWORD PTR [rax]	 # _1, s_69(D)->op
 # D:/programs/partical_life/calcflow.cpp:76: 		switch (s.op) {
	cmp	eax, 13	 # _1,
	je	.L143	 #,
	cmp	eax, 13	 # _1,
	jg	.L144	 #,
	cmp	eax, 12	 # _1,
	je	.L145	 #,
	cmp	eax, 12	 # _1,
	jg	.L144	 #,
	cmp	eax, 11	 # _1,
	je	.L146	 #,
	cmp	eax, 11	 # _1,
	jg	.L144	 #,
	cmp	eax, 10	 # _1,
	je	.L147	 #,
	cmp	eax, 10	 # _1,
	jg	.L144	 #,
	cmp	eax, 9	 # _1,
	je	.L148	 #,
	cmp	eax, 9	 # _1,
	jg	.L144	 #,
	cmp	eax, 8	 # _1,
	je	.L149	 #,
	cmp	eax, 8	 # _1,
	jg	.L144	 #,
	cmp	eax, 7	 # _1,
	je	.L150	 #,
	cmp	eax, 7	 # _1,
	jg	.L144	 #,
	cmp	eax, 6	 # _1,
	je	.L151	 #,
	cmp	eax, 6	 # _1,
	jg	.L144	 #,
	cmp	eax, 5	 # _1,
	je	.L152	 #,
	cmp	eax, 5	 # _1,
	jg	.L144	 #,
	cmp	eax, 4	 # _1,
	je	.L153	 #,
	cmp	eax, 4	 # _1,
	jg	.L144	 #,
	cmp	eax, 3	 # _1,
	je	.L154	 #,
	cmp	eax, 3	 # _1,
	jg	.L144	 #,
	cmp	eax, 2	 # _1,
	je	.L155	 #,
	cmp	eax, 2	 # _1,
	jg	.L144	 #,
	test	eax, eax	 # _1
	je	.L156	 #,
	cmp	eax, 1	 # _1,
	je	.L157	 #,
	jmp	.L144	 #
.L156:
 # D:/programs/partical_life/calcflow.cpp:78: 				if (s.args.empty()) throw std::runtime_error("push ");
	mov	rax, QWORD PTR 304[rbp]	 # tmp194, s
	add	rax, 8	 # _2,
	mov	rcx, rax	 #, _2
	call	_ZNKSt6vectorISt7complexIdESaIS1_EE5emptyEv	 #
 # D:/programs/partical_life/calcflow.cpp:78: 				if (s.args.empty()) throw std::runtime_error("push ");
	test	al, al	 # retval.307_210
	je	.L158	 #,
 # D:/programs/partical_life/calcflow.cpp:78: 				if (s.args.empty()) throw std::runtime_error("push ");
	mov	ecx, 16	 #,
	call	__cxa_allocate_exception	 #
	mov	rbx, rax	 # _214, tmp195
 # D:/programs/partical_life/calcflow.cpp:78: 				if (s.args.empty()) throw std::runtime_error("push ");
	lea	rax, .LC5[rip]	 # tmp196,
	mov	rdx, rax	 #, tmp196
	mov	rcx, rbx	 #, _214
.LEHB6:
	call	_ZNSt13runtime_errorC1EPKc	 #
.LEHE6:
 # D:/programs/partical_life/calcflow.cpp:78: 				if (s.args.empty()) throw std::runtime_error("push ");
	mov	rdx, QWORD PTR .refptr._ZNSt13runtime_errorD1Ev[rip]	 # tmp197,
	lea	rax, _ZTISt13runtime_error[rip]	 # tmp198,
	mov	r8, rdx	 #, tmp197
	mov	rdx, rax	 #, tmp198
	mov	rcx, rbx	 #, _214
.LEHB7:
	call	__cxa_throw	 #
.L158:
 # D:/programs/partical_life/calcflow.cpp:79: 				return s.args.front();
	mov	rax, QWORD PTR 304[rbp]	 # tmp199, s
	add	rax, 8	 # _3,
	mov	rcx, rax	 #, _3
	call	_ZNKSt6vectorISt7complexIdESaIS1_EE5frontEv	 #
 # D:/programs/partical_life/calcflow.cpp:79: 				return s.args.front();
	mov	rdx, QWORD PTR 288[rbp]	 # tmp200, .result_ptr
	movsd	xmm0, QWORD PTR [rax]	 # tmp201, MEM[(const struct complex &)_4]
	movsd	QWORD PTR [rdx], xmm0	 # <retval>, tmp201
	movsd	xmm0, QWORD PTR 8[rax]	 # tmp202, MEM[(const struct complex &)_4]
	movsd	QWORD PTR 8[rdx], xmm0	 # <retval>, tmp202
 # D:/programs/partical_life/calcflow.cpp:79: 				return s.args.front();
	jmp	.L142	 #
.L143:
 # D:/programs/partical_life/calcflow.cpp:82: 				auto it = variables.find(s.var_name);
	mov	rax, QWORD PTR 296[rbp]	 # _5, this
 # D:/programs/partical_life/calcflow.cpp:82: 				auto it = variables.find(s.var_name);
	mov	rdx, QWORD PTR 304[rbp]	 # tmp203, s
	add	rdx, 32	 # _6,
 # D:/programs/partical_life/calcflow.cpp:82: 				auto it = variables.find(s.var_name);
	mov	rcx, rax	 #, _5
	call	_ZNKSt13unordered_mapINSt7__cxx1112basic_stringIcSt11char_traitsIcESaIcEEESt7complexIdESt4hashIS5_ESt8equal_toIS5_ESaISt4pairIKS5_S7_EEE4findERSD_	 #
.LEHE7:
	mov	QWORD PTR 8[rbp], rax	 # it, tmp205
 # D:/programs/partical_life/calcflow.cpp:83: 				if (it == variables.end()) throw std::runtime_error(std::string(": ") + s.var_name);
	mov	rax, QWORD PTR 296[rbp]	 # _7, this
	mov	rcx, rax	 #, _7
	call	_ZNKSt13unordered_mapINSt7__cxx1112basic_stringIcSt11char_traitsIcESaIcEEESt7complexIdESt4hashIS5_ESt8equal_toIS5_ESaISt4pairIKS5_S7_EEE3endEv	 #
	mov	QWORD PTR 24[rbp], rax	 # D.95975, tmp207
 # D:/programs/partical_life/calcflow.cpp:83: 				if (it == variables.end()) throw std::runtime_error(std::string(": ") + s.var_name);
	lea	rdx, 24[rbp]	 # tmp208,
	lea	rax, 8[rbp]	 # tmp209,
	mov	rcx, rax	 #, tmp209
	call	_ZNSt8__detaileqERKNS_20_Node_const_iteratorISt4pairIKNSt7__cxx1112basic_stringIcSt11char_traitsIcESaIcEEESt7complexIdEELb0ELb1EEESE_	 #
 # D:/programs/partical_life/calcflow.cpp:83: 				if (it == variables.end()) throw std::runtime_error(std::string(": ") + s.var_name);
	test	al, al	 # retval.308_75
	je	.L160	 #,
 # D:/programs/partical_life/calcflow.cpp:83: 				if (it == variables.end()) throw std::runtime_error(std::string(": ") + s.var_name);
	mov	ecx, 16	 #,
	call	__cxa_allocate_exception	 #
	mov	rbx, rax	 # _8, tmp210
 # D:/programs/partical_life/calcflow.cpp:83: 				if (it == variables.end()) throw std::runtime_error(std::string(": ") + s.var_name);
	mov	rax, QWORD PTR 304[rbp]	 # tmp211, s
	lea	rsi, 32[rax]	 # _9,
	lea	rax, 111[rbp]	 # tmp212,
	mov	QWORD PTR 200[rbp], rax	 # this, tmp212
 # D:/mingw/mingw64/include/c++/15.1.0/bits/new_allocator.h:88:       __new_allocator() _GLIBCXX_USE_NOEXCEPT { }
	nop	
 # D:/mingw/mingw64/include/c++/15.1.0/bits/allocator.h:168:       allocator() _GLIBCXX_NOTHROW { }
	nop	
 # D:/programs/partical_life/calcflow.cpp:83: 				if (it == variables.end()) throw std::runtime_error(std::string(": ") + s.var_name);
	lea	rcx, 111[rbp]	 # tmp213,
	lea	rdx, .LC6[rip]	 # tmp214,
	lea	rax, 64[rbp]	 # tmp215,
	mov	r8, rcx	 #, tmp213
	mov	rcx, rax	 #, tmp215
.LEHB8:
	call	_ZNSt7__cxx1112basic_stringIcSt11char_traitsIcESaIcEEC1IS3_EEPKcRKS3_	 #
.LEHE8:
 # D:/programs/partical_life/calcflow.cpp:83: 				if (it == variables.end()) throw std::runtime_error(std::string(": ") + s.var_name);
	lea	rax, 32[rbp]	 # tmp216,
	lea	rdx, 64[rbp]	 # tmp217,
	mov	r8, rsi	 #, _9
	mov	rcx, rax	 #, tmp216
.LEHB9:
	call	_ZStplIcSt11char_traitsIcESaIcEENSt7__cxx1112basic_stringIT_T0_T1_EEOS8_RKS8_	 #
.LEHE9:
 # D:/programs/partical_life/calcflow.cpp:83: 				if (it == variables.end()) throw std::runtime_error(std::string(": ") + s.var_name);
	lea	rax, 32[rbp]	 # tmp218,
	mov	rdx, rax	 #, tmp218
	mov	rcx, rbx	 #, _8
.LEHB10:
	call	_ZNSt13runtime_errorC1ERKNSt7__cxx1112basic_stringIcSt11char_traitsIcESaIcEEE	 #
.LEHE10:
 # D:/programs/partical_life/calcflow.cpp:83: 				if (it == variables.end()) throw std::runtime_error(std::string(": ") + s.var_name);
	lea	rax, 32[rbp]	 # tmp219,
	mov	rcx, rax	 #, tmp219
	call	_ZNSt7__cxx1112basic_stringIcSt11char_traitsIcESaIcEED1Ev	 #
 # D:/programs/partical_life/calcflow.cpp:83: 				if (it == variables.end()) throw std::runtime_error(std::string(": ") + s.var_name);
	lea	rax, 64[rbp]	 # tmp220,
	mov	rcx, rax	 #, tmp220
	call	_ZNSt7__cxx1112basic_stringIcSt11char_traitsIcESaIcEED1Ev	 #
 # D:/mingw/mingw64/include/c++/15.1.0/bits/allocator.h:189:       ~allocator() _GLIBCXX_NOTHROW { }
	lea	rax, 111[rbp]	 # tmp221,
	mov	rcx, rax	 #, tmp221
	call	_ZNSt15__new_allocatorIcED2Ev	 #
	nop	
 # D:/programs/partical_life/calcflow.cpp:83: 				if (it == variables.end()) throw std::runtime_error(std::string(": ") + s.var_name);
	mov	rdx, QWORD PTR .refptr._ZNSt13runtime_errorD1Ev[rip]	 # tmp222,
	lea	rax, _ZTISt13runtime_error[rip]	 # tmp223,
	mov	r8, rdx	 #, tmp222
	mov	rdx, rax	 #, tmp223
	mov	rcx, rbx	 #, _8
.LEHB11:
	call	__cxa_throw	 #
.L160:
 # D:/programs/partical_life/calcflow.cpp:84: 				return it->second;
	lea	rax, 8[rbp]	 # tmp224,
	mov	rcx, rax	 #, tmp224
	call	_ZNKSt8__detail20_Node_const_iteratorISt4pairIKNSt7__cxx1112basic_stringIcSt11char_traitsIcESaIcEEESt7complexIdEELb0ELb1EEptEv	 #
 # D:/programs/partical_life/calcflow.cpp:84: 				return it->second;
	mov	rdx, QWORD PTR 288[rbp]	 # tmp225, .result_ptr
	movsd	xmm0, QWORD PTR 32[rax]	 # tmp226, _10->second
	movsd	QWORD PTR [rdx], xmm0	 # <retval>, tmp226
	movsd	xmm0, QWORD PTR 40[rax]	 # tmp227, _10->second
	movsd	QWORD PTR 8[rdx], xmm0	 # <retval>, tmp227
 # D:/programs/partical_life/calcflow.cpp:84: 				return it->second;
	jmp	.L142	 #
.L157:
 # D:/programs/partical_life/calcflow.cpp:87: 				Complex sum{0.0, 0.0};
	pxor	xmm0, xmm0	 # tmp228
	movsd	QWORD PTR -16[rbp], xmm0	 # REALPART_EXPR <sum._M_value>, tmp228
	pxor	xmm0, xmm0	 # tmp229
	movsd	QWORD PTR -8[rbp], xmm0	 # IMAGPART_EXPR <sum._M_value>, tmp229
 # D:/programs/partical_life/calcflow.cpp:88: 				for (const auto& a : s.args) sum += a;
	mov	rax, QWORD PTR 304[rbp]	 # tmp233, s
	add	rax, 8	 # tmp232,
	mov	QWORD PTR 216[rbp], rax	 # __for_range, tmp232
	mov	rax, QWORD PTR 216[rbp]	 # tmp234, __for_range
	mov	rcx, rax	 #, tmp234
	call	_ZNKSt6vectorISt7complexIdESaIS1_EE5beginEv	 #
	mov	QWORD PTR -24[rbp], rax	 # __for_begin, tmp236
 # D:/programs/partical_life/calcflow.cpp:88: 				for (const auto& a : s.args) sum += a;
	mov	rax, QWORD PTR 216[rbp]	 # tmp237, __for_range
	mov	rcx, rax	 #, tmp237
	call	_ZNKSt6vectorISt7complexIdESaIS1_EE3endEv	 #
	mov	QWORD PTR -32[rbp], rax	 # __for_end, tmp239
 # D:/programs/partical_life/calcflow.cpp:88: 				for (const auto& a : s.args) sum += a;
	jmp	.L161	 #
.L167:
 # D:/mingw/mingw64/include/c++/15.1.0/bits/stl_iterator.h:1090:       { return *_M_current; }
	mov	rax, QWORD PTR -24[rbp]	 # D.138357, __for_begin._M_current
 # D:/programs/partical_life/calcflow.cpp:88: 				for (const auto& a : s.args) sum += a;
	mov	QWORD PTR 208[rbp], rax	 # a, D.138357
 # D:/programs/partical_life/calcflow.cpp:88: 				for (const auto& a : s.args) sum += a;
	mov	rdx, QWORD PTR 208[rbp]	 # tmp240, a
	lea	rax, -16[rbp]	 # tmp241,
	mov	rcx, rax	 #, tmp241
	call	_ZNSt7complexIdEpLIdEERS0_RKS_IT_E	 #
 # D:/mingw/mingw64/include/c++/15.1.0/bits/stl_iterator.h:1103: 	++_M_current;
	mov	rax, QWORD PTR -24[rbp]	 # _226, __for_begin._M_current
 # D:/mingw/mingw64/include/c++/15.1.0/bits/stl_iterator.h:1103: 	++_M_current;
	add	rax, 16	 # _227,
	mov	QWORD PTR -24[rbp], rax	 # __for_begin._M_current, _227
 # D:/mingw/mingw64/include/c++/15.1.0/bits/stl_iterator.h:1104: 	return *this;
	nop	
.L161:
	lea	rax, -24[rbp]	 # tmp242,
	mov	QWORD PTR 192[rbp], rax	 # this, tmp242
 # D:/mingw/mingw64/include/c++/15.1.0/bits/stl_iterator.h:1166:       { return _M_current; }
	mov	rax, QWORD PTR 192[rbp]	 # _231, this
 # D:/mingw/mingw64/include/c++/15.1.0/bits/stl_iterator.h:1247:     { return __lhs.base() != __rhs.base(); }
	mov	rdx, QWORD PTR [rax]	 # _234, *_233
	lea	rax, -32[rbp]	 # tmp243,
	mov	QWORD PTR 184[rbp], rax	 # this, tmp243
 # D:/mingw/mingw64/include/c++/15.1.0/bits/stl_iterator.h:1166:       { return _M_current; }
	mov	rax, QWORD PTR 184[rbp]	 # _236, this
 # D:/mingw/mingw64/include/c++/15.1.0/bits/stl_iterator.h:1247:     { return __lhs.base() != __rhs.base(); }
	mov	rax, QWORD PTR [rax]	 # _239, *_238
 # D:/mingw/mingw64/include/c++/15.1.0/bits/stl_iterator.h:1247:     { return __lhs.base() != __rhs.base(); }
	cmp	rdx, rax	 # _234, _239
	setne	al	 #, D.138366
 # D:/programs/partical_life/calcflow.cpp:88: 				for (const auto& a : s.args) sum += a;
	test	al, al	 # D.138366
	jne	.L167	 #,
 # D:/programs/partical_life/calcflow.cpp:89: 				return sum;
	mov	rax, QWORD PTR 288[rbp]	 # tmp244, .result_ptr
	movsd	xmm0, QWORD PTR -16[rbp]	 # tmp245, sum
	movsd	QWORD PTR [rax], xmm0	 # <retval>, tmp245
	movsd	xmm0, QWORD PTR -8[rbp]	 # tmp246, sum
	movsd	QWORD PTR 8[rax], xmm0	 # <retval>, tmp246
 # D:/programs/partical_life/calcflow.cpp:130: 	}
	jmp	.L142	 #
.L155:
 # D:/programs/partical_life/calcflow.cpp:92: 				if (s.args.empty()) return Complex{0.0, 0.0};
	mov	rax, QWORD PTR 304[rbp]	 # tmp247, s
	add	rax, 8	 # _11,
	mov	rcx, rax	 #, _11
	call	_ZNKSt6vectorISt7complexIdESaIS1_EE5emptyEv	 #
 # D:/programs/partical_life/calcflow.cpp:92: 				if (s.args.empty()) return Complex{0.0, 0.0};
	test	al, al	 # retval.310_182
	je	.L168	 #,
 # D:/programs/partical_life/calcflow.cpp:92: 				if (s.args.empty()) return Complex{0.0, 0.0};
	mov	rax, QWORD PTR 288[rbp]	 # tmp248, .result_ptr
	pxor	xmm2, xmm2	 #
	pxor	xmm1, xmm1	 #
	mov	rcx, rax	 #, tmp248
	call	_ZNSt7complexIdEC1Edd	 #
 # D:/programs/partical_life/calcflow.cpp:92: 				if (s.args.empty()) return Complex{0.0, 0.0};
	jmp	.L142	 #
.L168:
 # D:/programs/partical_life/calcflow.cpp:93: 				if (s.args.size() == 1) return -s.args[0];
	mov	rax, QWORD PTR 304[rbp]	 # tmp249, s
	add	rax, 8	 # _12,
	mov	rcx, rax	 #, _12
	call	_ZNKSt6vectorISt7complexIdESaIS1_EE4sizeEv	 #
 # D:/programs/partical_life/calcflow.cpp:93: 				if (s.args.size() == 1) return -s.args[0];
	cmp	rax, 1	 # _13,
	sete	al	 #, retval.311_184
 # D:/programs/partical_life/calcflow.cpp:93: 				if (s.args.size() == 1) return -s.args[0];
	test	al, al	 # retval.311_184
	je	.L170	 #,
 # D:/programs/partical_life/calcflow.cpp:93: 				if (s.args.size() == 1) return -s.args[0];
	mov	rax, QWORD PTR 304[rbp]	 # tmp250, s
	add	rax, 8	 # _14,
	mov	edx, 0	 #,
	mov	rcx, rax	 #, _14
	call	_ZNKSt6vectorISt7complexIdESaIS1_EEixEy	 #
	mov	rdx, rax	 # _15,
 # D:/programs/partical_life/calcflow.cpp:93: 				if (s.args.size() == 1) return -s.args[0];
	mov	rax, QWORD PTR 288[rbp]	 # tmp251, .result_ptr
	mov	rcx, rax	 #, tmp251
	call	_ZStngIdESt7complexIT_ERKS2_	 #
 # D:/programs/partical_life/calcflow.cpp:93: 				if (s.args.size() == 1) return -s.args[0];
	jmp	.L142	 #
.L170:
 # D:/programs/partical_life/calcflow.cpp:94: 				Complex r = s.args[0];
	mov	rax, QWORD PTR 304[rbp]	 # tmp252, s
	add	rax, 8	 # _16,
	mov	edx, 0	 #,
	mov	rcx, rax	 #, _16
	call	_ZNKSt6vectorISt7complexIdESaIS1_EEixEy	 #
 # D:/programs/partical_life/calcflow.cpp:94: 				Complex r = s.args[0];
	movsd	xmm0, QWORD PTR [rax]	 # tmp253, MEM[(const struct complex &)_17]
	movsd	QWORD PTR -48[rbp], xmm0	 # r, tmp253
	movsd	xmm0, QWORD PTR 8[rax]	 # tmp254, MEM[(const struct complex &)_17]
	movsd	QWORD PTR -40[rbp], xmm0	 # r, tmp254
 # D:/programs/partical_life/calcflow.cpp:95: 				for (size_t i = 1; i < s.args.size(); ++i) r -= s.args[i];
	mov	QWORD PTR 248[rbp], 1	 # i,
 # D:/programs/partical_life/calcflow.cpp:95: 				for (size_t i = 1; i < s.args.size(); ++i) r -= s.args[i];
	jmp	.L171	 #
.L172:
 # D:/programs/partical_life/calcflow.cpp:95: 				for (size_t i = 1; i < s.args.size(); ++i) r -= s.args[i];
	mov	rax, QWORD PTR 304[rbp]	 # tmp255, s
	lea	rcx, 8[rax]	 # _18,
	mov	rax, QWORD PTR 248[rbp]	 # tmp256, i
	mov	rdx, rax	 #, tmp256
	call	_ZNKSt6vectorISt7complexIdESaIS1_EEixEy	 #
	mov	rdx, rax	 # _19,
	lea	rax, -48[rbp]	 # tmp257,
	mov	rcx, rax	 #, tmp257
	call	_ZNSt7complexIdEmIIdEERS0_RKS_IT_E	 #
 # D:/programs/partical_life/calcflow.cpp:95: 				for (size_t i = 1; i < s.args.size(); ++i) r -= s.args[i];
	add	QWORD PTR 248[rbp], 1	 # i,
.L171:
 # D:/programs/partical_life/calcflow.cpp:95: 				for (size_t i = 1; i < s.args.size(); ++i) r -= s.args[i];
	mov	rax, QWORD PTR 304[rbp]	 # tmp258, s
	add	rax, 8	 # _20,
	mov	rcx, rax	 #, _20
	call	_ZNKSt6vectorISt7complexIdESaIS1_EE4sizeEv	 #
 # D:/programs/partical_life/calcflow.cpp:95: 				for (size_t i = 1; i < s.args.size(); ++i) r -= s.args[i];
	cmp	QWORD PTR 248[rbp], rax	 # i, _21
	setb	al	 #, retval.312_189
	test	al, al	 # retval.312_189
	jne	.L172	 #,
 # D:/programs/partical_life/calcflow.cpp:96: 				return r;
	mov	rax, QWORD PTR 288[rbp]	 # tmp259, .result_ptr
	movsd	xmm0, QWORD PTR -48[rbp]	 # tmp260, r
	movsd	QWORD PTR [rax], xmm0	 # <retval>, tmp260
	movsd	xmm0, QWORD PTR -40[rbp]	 # tmp261, r
	movsd	QWORD PTR 8[rax], xmm0	 # <retval>, tmp261
	jmp	.L142	 #
.L154:
 # D:/programs/partical_life/calcflow.cpp:99: 				Complex r{1.0, 0.0};
	movsd	xmm0, QWORD PTR .LC7[rip]	 # tmp262,
	movsd	QWORD PTR -64[rbp], xmm0	 # REALPART_EXPR <r._M_value>, tmp262
	pxor	xmm0, xmm0	 # tmp263
	movsd	QWORD PTR -56[rbp], xmm0	 # IMAGPART_EXPR <r._M_value>, tmp263
 # D:/programs/partical_life/calcflow.cpp:100: 				for (const auto& a : s.args) r *= a;
	mov	rax, QWORD PTR 304[rbp]	 # tmp267, s
	add	rax, 8	 # tmp266,
	mov	QWORD PTR 232[rbp], rax	 # __for_range, tmp266
	mov	rax, QWORD PTR 232[rbp]	 # tmp268, __for_range
	mov	rcx, rax	 #, tmp268
	call	_ZNKSt6vectorISt7complexIdESaIS1_EE5beginEv	 #
	mov	QWORD PTR -72[rbp], rax	 # __for_begin, tmp270
 # D:/programs/partical_life/calcflow.cpp:100: 				for (const auto& a : s.args) r *= a;
	mov	rax, QWORD PTR 232[rbp]	 # tmp271, __for_range
	mov	rcx, rax	 #, tmp271
	call	_ZNKSt6vectorISt7complexIdESaIS1_EE3endEv	 #
	mov	QWORD PTR -80[rbp], rax	 # __for_end, tmp273
 # D:/programs/partical_life/calcflow.cpp:100: 				for (const auto& a : s.args) r *= a;
	jmp	.L173	 #
.L179:
 # D:/mingw/mingw64/include/c++/15.1.0/bits/stl_iterator.h:1090:       { return *_M_current; }
	mov	rax, QWORD PTR -72[rbp]	 # D.138378, __for_begin._M_current
 # D:/programs/partical_life/calcflow.cpp:100: 				for (const auto& a : s.args) r *= a;
	mov	QWORD PTR 224[rbp], rax	 # a, D.138378
 # D:/programs/partical_life/calcflow.cpp:100: 				for (const auto& a : s.args) r *= a;
	mov	rdx, QWORD PTR 224[rbp]	 # tmp274, a
	lea	rax, -64[rbp]	 # tmp275,
	mov	rcx, rax	 #, tmp275
	call	_ZNSt7complexIdEmLIdEERS0_RKS_IT_E	 #
 # D:/mingw/mingw64/include/c++/15.1.0/bits/stl_iterator.h:1103: 	++_M_current;
	mov	rax, QWORD PTR -72[rbp]	 # _241, __for_begin._M_current
 # D:/mingw/mingw64/include/c++/15.1.0/bits/stl_iterator.h:1103: 	++_M_current;
	add	rax, 16	 # _242,
	mov	QWORD PTR -72[rbp], rax	 # __for_begin._M_current, _242
 # D:/mingw/mingw64/include/c++/15.1.0/bits/stl_iterator.h:1104: 	return *this;
	nop	
.L173:
	lea	rax, -72[rbp]	 # tmp276,
	mov	QWORD PTR 176[rbp], rax	 # this, tmp276
 # D:/mingw/mingw64/include/c++/15.1.0/bits/stl_iterator.h:1166:       { return _M_current; }
	mov	rax, QWORD PTR 176[rbp]	 # _246, this
 # D:/mingw/mingw64/include/c++/15.1.0/bits/stl_iterator.h:1247:     { return __lhs.base() != __rhs.base(); }
	mov	rdx, QWORD PTR [rax]	 # _249, *_248
	lea	rax, -80[rbp]	 # tmp277,
	mov	QWORD PTR 168[rbp], rax	 # this, tmp277
 # D:/mingw/mingw64/include/c++/15.1.0/bits/stl_iterator.h:1166:       { return _M_current; }
	mov	rax, QWORD PTR 168[rbp]	 # _251, this
 # D:/mingw/mingw64/include/c++/15.1.0/bits/stl_iterator.h:1247:     { return __lhs.base() != __rhs.base(); }
	mov	rax, QWORD PTR [rax]	 # _254, *_253
 # D:/mingw/mingw64/include/c++/15.1.0/bits/stl_iterator.h:1247:     { return __lhs.base() != __rhs.base(); }
	cmp	rdx, rax	 # _249, _254
	setne	al	 #, D.138387
 # D:/programs/partical_life/calcflow.cpp:100: 				for (const auto& a : s.args) r *= a;
	test	al, al	 # D.138387
	jne	.L179	 #,
 # D:/programs/partical_life/calcflow.cpp:101: 				return r;
	mov	rax, QWORD PTR 288[rbp]	 # tmp278, .result_ptr
	movsd	xmm0, QWORD PTR -64[rbp]	 # tmp279, r
	movsd	QWORD PTR [rax], xmm0	 # <retval>, tmp279
	movsd	xmm0, QWORD PTR -56[rbp]	 # tmp280, r
	movsd	QWORD PTR 8[rax], xmm0	 # <retval>, tmp280
 # D:/programs/partical_life/calcflow.cpp:130: 	}
	jmp	.L142	 #
.L153:
 # D:/programs/partical_life/calcflow.cpp:104: 				if (s.args.empty()) return c_nan();
	mov	rax, QWORD PTR 304[rbp]	 # tmp281, s
	add	rax, 8	 # _22,
	mov	rcx, rax	 #, _22
	call	_ZNKSt6vectorISt7complexIdESaIS1_EE5emptyEv	 #
 # D:/programs/partical_life/calcflow.cpp:104: 				if (s.args.empty()) return c_nan();
	test	al, al	 # retval.314_150
	je	.L180	 #,
 # D:/programs/partical_life/calcflow.cpp:104: 				if (s.args.empty()) return c_nan();
	mov	rax, QWORD PTR 288[rbp]	 # tmp282, .result_ptr
	mov	rcx, rax	 #, tmp282
	call	_ZN4Calc5c_nanEv	 #
 # D:/programs/partical_life/calcflow.cpp:104: 				if (s.args.empty()) return c_nan();
	jmp	.L142	 #
.L180:
 # D:/programs/partical_life/calcflow.cpp:105: 				if (s.args.size() == 1) return Complex{1.0, 0.0} / s.args[0];
	mov	rax, QWORD PTR 304[rbp]	 # tmp283, s
	add	rax, 8	 # _23,
	mov	rcx, rax	 #, _23
	call	_ZNKSt6vectorISt7complexIdESaIS1_EE4sizeEv	 #
 # D:/programs/partical_life/calcflow.cpp:105: 				if (s.args.size() == 1) return Complex{1.0, 0.0} / s.args[0];
	cmp	rax, 1	 # _24,
	sete	al	 #, retval.315_152
 # D:/programs/partical_life/calcflow.cpp:105: 				if (s.args.size() == 1) return Complex{1.0, 0.0} / s.args[0];
	test	al, al	 # retval.315_152
	je	.L182	 #,
 # D:/programs/partical_life/calcflow.cpp:105: 				if (s.args.size() == 1) return Complex{1.0, 0.0} / s.args[0];
	mov	rax, QWORD PTR 304[rbp]	 # tmp284, s
	add	rax, 8	 # _25,
	mov	edx, 0	 #,
	mov	rcx, rax	 #, _25
	call	_ZNKSt6vectorISt7complexIdESaIS1_EEixEy	 #
	mov	rbx, rax	 # _26,
 # D:/programs/partical_life/calcflow.cpp:105: 				if (s.args.size() == 1) return Complex{1.0, 0.0} / s.args[0];
	movsd	xmm0, QWORD PTR .LC7[rip]	 # tmp285,
	lea	rax, 112[rbp]	 # tmp286,
	pxor	xmm2, xmm2	 #
	movapd	xmm1, xmm0	 #, tmp285
	mov	rcx, rax	 #, tmp286
	call	_ZNSt7complexIdEC1Edd	 #
 # D:/programs/partical_life/calcflow.cpp:105: 				if (s.args.size() == 1) return Complex{1.0, 0.0} / s.args[0];
	mov	rax, QWORD PTR 288[rbp]	 # tmp287, .result_ptr
	lea	rdx, 112[rbp]	 # tmp288,
	mov	r8, rbx	 #, _26
	mov	rcx, rax	 #, tmp287
	call	_ZStdvIdESt7complexIT_ERKS2_S4_	 #
.LEHE11:
 # D:/programs/partical_life/calcflow.cpp:105: 				if (s.args.size() == 1) return Complex{1.0, 0.0} / s.args[0];
	jmp	.L142	 #
.L182:
 # D:/programs/partical_life/calcflow.cpp:106: 				Complex r = s.args[0];
	mov	rax, QWORD PTR 304[rbp]	 # tmp289, s
	add	rax, 8	 # _27,
	mov	edx, 0	 #,
	mov	rcx, rax	 #, _27
	call	_ZNKSt6vectorISt7complexIdESaIS1_EEixEy	 #
 # D:/programs/partical_life/calcflow.cpp:106: 				Complex r = s.args[0];
	movsd	xmm0, QWORD PTR [rax]	 # tmp290, MEM[(const struct complex &)_28]
	movsd	QWORD PTR -96[rbp], xmm0	 # r, tmp290
	movsd	xmm0, QWORD PTR 8[rax]	 # tmp291, MEM[(const struct complex &)_28]
	movsd	QWORD PTR -88[rbp], xmm0	 # r, tmp291
 # D:/programs/partical_life/calcflow.cpp:107: 				for (size_t i = 1; i < s.args.size(); ++i) r /= s.args[i];
	mov	QWORD PTR 240[rbp], 1	 # i,
 # D:/programs/partical_life/calcflow.cpp:107: 				for (size_t i = 1; i < s.args.size(); ++i) r /= s.args[i];
	jmp	.L183	 #
.L184:
 # D:/programs/partical_life/calcflow.cpp:107: 				for (size_t i = 1; i < s.args.size(); ++i) r /= s.args[i];
	mov	rax, QWORD PTR 304[rbp]	 # tmp292, s
	lea	rcx, 8[rax]	 # _29,
	mov	rax, QWORD PTR 240[rbp]	 # tmp293, i
	mov	rdx, rax	 #, tmp293
	call	_ZNKSt6vectorISt7complexIdESaIS1_EEixEy	 #
	mov	rdx, rax	 # _30,
	lea	rax, -96[rbp]	 # tmp294,
	mov	rcx, rax	 #, tmp294
	call	_ZNSt7complexIdEdVIdEERS0_RKS_IT_E	 #
 # D:/programs/partical_life/calcflow.cpp:107: 				for (size_t i = 1; i < s.args.size(); ++i) r /= s.args[i];
	add	QWORD PTR 240[rbp], 1	 # i,
.L183:
 # D:/programs/partical_life/calcflow.cpp:107: 				for (size_t i = 1; i < s.args.size(); ++i) r /= s.args[i];
	mov	rax, QWORD PTR 304[rbp]	 # tmp295, s
	add	rax, 8	 # _31,
	mov	rcx, rax	 #, _31
	call	_ZNKSt6vectorISt7complexIdESaIS1_EE4sizeEv	 #
 # D:/programs/partical_life/calcflow.cpp:107: 				for (size_t i = 1; i < s.args.size(); ++i) r /= s.args[i];
	cmp	QWORD PTR 240[rbp], rax	 # i, _32
	setb	al	 #, retval.316_157
	test	al, al	 # retval.316_157
	jne	.L184	 #,
 # D:/programs/partical_life/calcflow.cpp:108: 				return r;
	mov	rax, QWORD PTR 288[rbp]	 # tmp296, .result_ptr
	movsd	xmm0, QWORD PTR -96[rbp]	 # tmp297, r
	movsd	QWORD PTR [rax], xmm0	 # <retval>, tmp297
	movsd	xmm0, QWORD PTR -88[rbp]	 # tmp298, r
	movsd	QWORD PTR 8[rax], xmm0	 # <retval>, tmp298
	jmp	.L142	 #
.L152:
 # D:/programs/partical_life/calcflow.cpp:111: 				if (s.args.size() < 2) throw std::runtime_error("pow 2");
	mov	rax, QWORD PTR 304[rbp]	 # tmp299, s
	add	rax, 8	 # _33,
	mov	rcx, rax	 #, _33
	call	_ZNKSt6vectorISt7complexIdESaIS1_EE4sizeEv	 #
 # D:/programs/partical_life/calcflow.cpp:111: 				if (s.args.size() < 2) throw std::runtime_error("pow 2");
	cmp	rax, 1	 # _34,
	setbe	al	 #, retval.317_140
 # D:/programs/partical_life/calcflow.cpp:111: 				if (s.args.size() < 2) throw std::runtime_error("pow 2");
	test	al, al	 # retval.317_140
	je	.L185	 #,
 # D:/programs/partical_life/calcflow.cpp:111: 				if (s.args.size() < 2) throw std::runtime_error("pow 2");
	mov	ecx, 16	 #,
	call	__cxa_allocate_exception	 #
	mov	rbx, rax	 # _145, tmp300
 # D:/programs/partical_life/calcflow.cpp:111: 				if (s.args.size() < 2) throw std::runtime_error("pow 2");
	lea	rax, .LC8[rip]	 # tmp301,
	mov	rdx, rax	 #, tmp301
	mov	rcx, rbx	 #, _145
.LEHB12:
	call	_ZNSt13runtime_errorC1EPKc	 #
.LEHE12:
 # D:/programs/partical_life/calcflow.cpp:111: 				if (s.args.size() < 2) throw std::runtime_error("pow 2");
	mov	rdx, QWORD PTR .refptr._ZNSt13runtime_errorD1Ev[rip]	 # tmp302,
	lea	rax, _ZTISt13runtime_error[rip]	 # tmp303,
	mov	r8, rdx	 #, tmp302
	mov	rdx, rax	 #, tmp303
	mov	rcx, rbx	 #, _145
.LEHB13:
	call	__cxa_throw	 #
.LEHE13:
.L185:
 # D:/programs/partical_life/calcflow.cpp:112: 				return pow(s.args[0], s.args[1]);
	mov	rax, QWORD PTR 304[rbp]	 # tmp304, s
	add	rax, 8	 # _35,
	mov	edx, 1	 #,
	mov	rcx, rax	 #, _35
	call	_ZNKSt6vectorISt7complexIdESaIS1_EEixEy	 #
	mov	rbx, rax	 # _36,
 # D:/programs/partical_life/calcflow.cpp:112: 				return pow(s.args[0], s.args[1]);
	mov	rax, QWORD PTR 304[rbp]	 # tmp305, s
	add	rax, 8	 # _37,
	mov	edx, 0	 #,
	mov	rcx, rax	 #, _37
	call	_ZNKSt6vectorISt7complexIdESaIS1_EEixEy	 #
	mov	rdx, rax	 # _38,
 # D:/programs/partical_life/calcflow.cpp:112: 				return pow(s.args[0], s.args[1]);
	mov	rax, QWORD PTR 288[rbp]	 # tmp306, .result_ptr
	mov	r8, rbx	 #, _36
	mov	rcx, rax	 #, tmp306
	call	_ZSt3powIdESt7complexIT_ERKS2_S4_	 #
 # D:/programs/partical_life/calcflow.cpp:112: 				return pow(s.args[0], s.args[1]);
	jmp	.L142	 #
.L151:
 # D:/programs/partical_life/calcflow.cpp:115: 				if (s.args.size() < 2) throw std::runtime_error("log 2");
	mov	rax, QWORD PTR 304[rbp]	 # tmp307, s
	add	rax, 8	 # _39,
	mov	rcx, rax	 #, _39
	call	_ZNKSt6vectorISt7complexIdESaIS1_EE4sizeEv	 #
 # D:/programs/partical_life/calcflow.cpp:115: 				if (s.args.size() < 2) throw std::runtime_error("log 2");
	cmp	rax, 1	 # _40,
	setbe	al	 #, retval.318_124
 # D:/programs/partical_life/calcflow.cpp:115: 				if (s.args.size() < 2) throw std::runtime_error("log 2");
	test	al, al	 # retval.318_124
	je	.L186	 #,
 # D:/programs/partical_life/calcflow.cpp:115: 				if (s.args.size() < 2) throw std::runtime_error("log 2");
	mov	ecx, 16	 #,
	call	__cxa_allocate_exception	 #
	mov	rbx, rax	 # _135, tmp308
 # D:/programs/partical_life/calcflow.cpp:115: 				if (s.args.size() < 2) throw std::runtime_error("log 2");
	lea	rax, .LC9[rip]	 # tmp309,
	mov	rdx, rax	 #, tmp309
	mov	rcx, rbx	 #, _135
.LEHB14:
	call	_ZNSt13runtime_errorC1EPKc	 #
.LEHE14:
 # D:/programs/partical_life/calcflow.cpp:115: 				if (s.args.size() < 2) throw std::runtime_error("log 2");
	mov	rdx, QWORD PTR .refptr._ZNSt13runtime_errorD1Ev[rip]	 # tmp310,
	lea	rax, _ZTISt13runtime_error[rip]	 # tmp311,
	mov	r8, rdx	 #, tmp310
	mov	rdx, rax	 #, tmp311
	mov	rcx, rbx	 #, _135
.LEHB15:
	call	__cxa_throw	 #
.L186:
 # D:/programs/partical_life/calcflow.cpp:117: 				return log(s.args[1]) / log(s.args[0]);
	mov	rax, QWORD PTR 304[rbp]	 # tmp312, s
	add	rax, 8	 # _41,
	mov	edx, 0	 #,
	mov	rcx, rax	 #, _41
	call	_ZNKSt6vectorISt7complexIdESaIS1_EEixEy	 #
	mov	rdx, rax	 # _42,
 # D:/programs/partical_life/calcflow.cpp:117: 				return log(s.args[1]) / log(s.args[0]);
	lea	rax, 128[rbp]	 # tmp313,
	mov	rcx, rax	 #, tmp313
	call	_ZSt3logIdESt7complexIT_ERKS2_	 #
 # D:/programs/partical_life/calcflow.cpp:117: 				return log(s.args[1]) / log(s.args[0]);
	mov	rax, QWORD PTR 304[rbp]	 # tmp314, s
	add	rax, 8	 # _43,
	mov	edx, 1	 #,
	mov	rcx, rax	 #, _43
	call	_ZNKSt6vectorISt7complexIdESaIS1_EEixEy	 #
	mov	rdx, rax	 # _44,
 # D:/programs/partical_life/calcflow.cpp:117: 				return log(s.args[1]) / log(s.args[0]);
	lea	rax, 144[rbp]	 # tmp315,
	mov	rcx, rax	 #, tmp315
	call	_ZSt3logIdESt7complexIT_ERKS2_	 #
 # D:/programs/partical_life/calcflow.cpp:117: 				return log(s.args[1]) / log(s.args[0]);
	mov	rax, QWORD PTR 288[rbp]	 # tmp316, .result_ptr
	lea	rcx, 128[rbp]	 # tmp317,
	lea	rdx, 144[rbp]	 # tmp318,
	mov	r8, rcx	 #, tmp317
	mov	rcx, rax	 #, tmp316
	call	_ZStdvIdESt7complexIT_ERKS2_S4_	 #
.LEHE15:
 # D:/programs/partical_life/calcflow.cpp:117: 				return log(s.args[1]) / log(s.args[0]);
	jmp	.L142	 #
.L150:
 # D:/programs/partical_life/calcflow.cpp:120: 				if (s.args.size() < 1) throw std::runtime_error("neg 1");
	mov	rax, QWORD PTR 304[rbp]	 # tmp319, s
	add	rax, 8	 # _45,
	mov	rcx, rax	 #, _45
	call	_ZNKSt6vectorISt7complexIdESaIS1_EE4sizeEv	 #
 # D:/programs/partical_life/calcflow.cpp:120: 				if (s.args.size() < 1) throw std::runtime_error("neg 1");
	test	rax, rax	 # _46
	sete	al	 #, retval.319_115
 # D:/programs/partical_life/calcflow.cpp:120: 				if (s.args.size() < 1) throw std::runtime_error("neg 1");
	test	al, al	 # retval.319_115
	je	.L187	 #,
 # D:/programs/partical_life/calcflow.cpp:120: 				if (s.args.size() < 1) throw std::runtime_error("neg 1");
	mov	ecx, 16	 #,
	call	__cxa_allocate_exception	 #
	mov	rbx, rax	 # _119, tmp320
 # D:/programs/partical_life/calcflow.cpp:120: 				if (s.args.size() < 1) throw std::runtime_error("neg 1");
	lea	rax, .LC10[rip]	 # tmp321,
	mov	rdx, rax	 #, tmp321
	mov	rcx, rbx	 #, _119
.LEHB16:
	call	_ZNSt13runtime_errorC1EPKc	 #
.LEHE16:
 # D:/programs/partical_life/calcflow.cpp:120: 				if (s.args.size() < 1) throw std::runtime_error("neg 1");
	mov	rdx, QWORD PTR .refptr._ZNSt13runtime_errorD1Ev[rip]	 # tmp322,
	lea	rax, _ZTISt13runtime_error[rip]	 # tmp323,
	mov	r8, rdx	 #, tmp322
	mov	rdx, rax	 #, tmp323
	mov	rcx, rbx	 #, _119
.LEHB17:
	call	__cxa_throw	 #
.L187:
 # D:/programs/partical_life/calcflow.cpp:121: 				return -s.args[0];
	mov	rax, QWORD PTR 304[rbp]	 # tmp324, s
	add	rax, 8	 # _47,
	mov	edx, 0	 #,
	mov	rcx, rax	 #, _47
	call	_ZNKSt6vectorISt7complexIdESaIS1_EEixEy	 #
	mov	rdx, rax	 # _48,
 # D:/programs/partical_life/calcflow.cpp:121: 				return -s.args[0];
	mov	rax, QWORD PTR 288[rbp]	 # tmp325, .result_ptr
	mov	rcx, rax	 #, tmp325
	call	_ZStngIdESt7complexIT_ERKS2_	 #
 # D:/programs/partical_life/calcflow.cpp:121: 				return -s.args[0];
	jmp	.L142	 #
.L149:
 # D:/programs/partical_life/calcflow.cpp:123: 			case OpKind::Sin: return sin(get(0));
	lea	rax, 16[rbp]	 # tmp326,
	mov	edx, 0	 #,
	mov	rcx, rax	 #, tmp326
	call	_ZZNK4Calc11computeStepERK8CalcStepENKUlyE_clEy	 #
	mov	rdx, rax	 # _49,
 # D:/programs/partical_life/calcflow.cpp:123: 			case OpKind::Sin: return sin(get(0));
	mov	rax, QWORD PTR 288[rbp]	 # tmp327, .result_ptr
	mov	rcx, rax	 #, tmp327
	call	_ZSt3sinIdESt7complexIT_ERKS2_	 #
 # D:/programs/partical_life/calcflow.cpp:123: 			case OpKind::Sin: return sin(get(0));
	jmp	.L142	 #
.L148:
 # D:/programs/partical_life/calcflow.cpp:124: 			case OpKind::Cos: return cos(get(0));
	lea	rax, 16[rbp]	 # tmp328,
	mov	edx, 0	 #,
	mov	rcx, rax	 #, tmp328
	call	_ZZNK4Calc11computeStepERK8CalcStepENKUlyE_clEy	 #
	mov	rdx, rax	 # _50,
 # D:/programs/partical_life/calcflow.cpp:124: 			case OpKind::Cos: return cos(get(0));
	mov	rax, QWORD PTR 288[rbp]	 # tmp329, .result_ptr
	mov	rcx, rax	 #, tmp329
	call	_ZSt3cosIdESt7complexIT_ERKS2_	 #
 # D:/programs/partical_life/calcflow.cpp:124: 			case OpKind::Cos: return cos(get(0));
	jmp	.L142	 #
.L147:
 # D:/programs/partical_life/calcflow.cpp:125: 			case OpKind::Tan: return tan(get(0));
	lea	rax, 16[rbp]	 # tmp330,
	mov	edx, 0	 #,
	mov	rcx, rax	 #, tmp330
	call	_ZZNK4Calc11computeStepERK8CalcStepENKUlyE_clEy	 #
	mov	rdx, rax	 # _51,
 # D:/programs/partical_life/calcflow.cpp:125: 			case OpKind::Tan: return tan(get(0));
	mov	rax, QWORD PTR 288[rbp]	 # tmp331, .result_ptr
	mov	rcx, rax	 #, tmp331
	call	_ZSt3tanIdESt7complexIT_ERKS2_	 #
 # D:/programs/partical_life/calcflow.cpp:125: 			case OpKind::Tan: return tan(get(0));
	jmp	.L142	 #
.L146:
 # D:/programs/partical_life/calcflow.cpp:126: 			case OpKind::Exp: return exp(get(0));
	lea	rax, 16[rbp]	 # tmp332,
	mov	edx, 0	 #,
	mov	rcx, rax	 #, tmp332
	call	_ZZNK4Calc11computeStepERK8CalcStepENKUlyE_clEy	 #
	mov	rdx, rax	 # _52,
 # D:/programs/partical_life/calcflow.cpp:126: 			case OpKind::Exp: return exp(get(0));
	mov	rax, QWORD PTR 288[rbp]	 # tmp333, .result_ptr
	mov	rcx, rax	 #, tmp333
	call	_ZSt3expIdESt7complexIT_ERKS2_	 #
 # D:/programs/partical_life/calcflow.cpp:126: 			case OpKind::Exp: return exp(get(0));
	jmp	.L142	 #
.L145:
 # D:/programs/partical_life/calcflow.cpp:127: 			case OpKind::Abs: return Complex{abs(get(0)), 0.0};
	lea	rax, 16[rbp]	 # tmp334,
	mov	edx, 0	 #,
	mov	rcx, rax	 #, tmp334
	call	_ZZNK4Calc11computeStepERK8CalcStepENKUlyE_clEy	 #
.LEHE17:
 # D:/programs/partical_life/calcflow.cpp:127: 			case OpKind::Abs: return Complex{abs(get(0)), 0.0};
	mov	rcx, rax	 #, _53
	call	_ZSt3absIdET_RKSt7complexIS0_E	 #
	movq	rdx, xmm0	 # _54,
 # D:/programs/partical_life/calcflow.cpp:127: 			case OpKind::Abs: return Complex{abs(get(0)), 0.0};
	mov	rax, QWORD PTR 288[rbp]	 # tmp335, .result_ptr
	pxor	xmm2, xmm2	 #
	movq	xmm1, rdx	 #, _54
	mov	rcx, rax	 #, tmp335
	call	_ZNSt7complexIdEC1Edd	 #
 # D:/programs/partical_life/calcflow.cpp:127: 			case OpKind::Abs: return Complex{abs(get(0)), 0.0};
	jmp	.L142	 #
.L144:
 # D:/programs/partical_life/calcflow.cpp:129: 		throw std::runtime_error("");
	mov	ecx, 16	 #,
	call	__cxa_allocate_exception	 #
	mov	rbx, rax	 # _220, tmp336
 # D:/programs/partical_life/calcflow.cpp:129: 		throw std::runtime_error("");
	lea	rax, .LC11[rip]	 # tmp337,
	mov	rdx, rax	 #, tmp337
	mov	rcx, rbx	 #, _220
.LEHB18:
	call	_ZNSt13runtime_errorC1EPKc	 #
.LEHE18:
 # D:/programs/partical_life/calcflow.cpp:129: 		throw std::runtime_error("");
	mov	rdx, QWORD PTR .refptr._ZNSt13runtime_errorD1Ev[rip]	 # tmp338,
	lea	rax, _ZTISt13runtime_error[rip]	 # tmp339,
	mov	r8, rdx	 #, tmp338
	mov	rdx, rax	 #, tmp339
	mov	rcx, rbx	 #, _220
.LEHB19:
	call	__cxa_throw	 #
.L197:
 # D:/programs/partical_life/calcflow.cpp:78: 				if (s.args.empty()) throw std::runtime_error("push ");
	mov	rsi, rax	 # tmp340,
	mov	rcx, rbx	 #, _214
	call	__cxa_free_exception	 #
	mov	rax, rsi	 # D.139816, tmp340
	mov	rcx, rax	 #, D.139816
	call	_Unwind_Resume	 #
.L200:
 # D:/programs/partical_life/calcflow.cpp:83: 				if (it == variables.end()) throw std::runtime_error(std::string(": ") + s.var_name);
	mov	rsi, rax	 # tmp343,
	lea	rax, 32[rbp]	 # tmp341,
	mov	rcx, rax	 #, tmp341
	call	_ZNSt7__cxx1112basic_stringIcSt11char_traitsIcESaIcEED1Ev	 #
	jmp	.L191	 #
.L199:
 # D:/programs/partical_life/calcflow.cpp:83: 				if (it == variables.end()) throw std::runtime_error(std::string(": ") + s.var_name);
	mov	rsi, rax	 # tmp342,
.L191:
	lea	rax, 64[rbp]	 # tmp346,
	mov	rcx, rax	 #, tmp346
	call	_ZNSt7__cxx1112basic_stringIcSt11char_traitsIcESaIcEED1Ev	 #
	jmp	.L192	 #
.L198:
 # D:/mingw/mingw64/include/c++/15.1.0/bits/allocator.h:189:       ~allocator() _GLIBCXX_NOTHROW { }
	mov	rsi, rax	 # tmp347,
.L192:
	lea	rax, 111[rbp]	 # tmp349,
	mov	rcx, rax	 #, tmp349
	call	_ZNSt15__new_allocatorIcED2Ev	 #
	nop	
 # D:/programs/partical_life/calcflow.cpp:83: 				if (it == variables.end()) throw std::runtime_error(std::string(": ") + s.var_name);
	mov	rcx, rbx	 #, _8
	call	__cxa_free_exception	 #
	mov	rax, rsi	 # D.139817, tmp350
	mov	rcx, rax	 #, D.139817
	call	_Unwind_Resume	 #
.L201:
 # D:/programs/partical_life/calcflow.cpp:111: 				if (s.args.size() < 2) throw std::runtime_error("pow 2");
	mov	rsi, rax	 # tmp352,
	mov	rcx, rbx	 #, _145
	call	__cxa_free_exception	 #
	mov	rax, rsi	 # D.139818, tmp352
	mov	rcx, rax	 #, D.139818
	call	_Unwind_Resume	 #
.L202:
 # D:/programs/partical_life/calcflow.cpp:115: 				if (s.args.size() < 2) throw std::runtime_error("log 2");
	mov	rsi, rax	 # tmp353,
	mov	rcx, rbx	 #, _135
	call	__cxa_free_exception	 #
	mov	rax, rsi	 # D.139819, tmp353
	mov	rcx, rax	 #, D.139819
	call	_Unwind_Resume	 #
.L203:
 # D:/programs/partical_life/calcflow.cpp:120: 				if (s.args.size() < 1) throw std::runtime_error("neg 1");
	mov	rsi, rax	 # tmp354,
	mov	rcx, rbx	 #, _119
	call	__cxa_free_exception	 #
	mov	rax, rsi	 # D.139820, tmp354
	mov	rcx, rax	 #, D.139820
	call	_Unwind_Resume	 #
.L204:
 # D:/programs/partical_life/calcflow.cpp:129: 		throw std::runtime_error("");
	mov	rsi, rax	 # tmp355,
	mov	rcx, rbx	 #, _220
	call	__cxa_free_exception	 #
	mov	rax, rsi	 # D.139821, tmp355
	mov	rcx, rax	 #, D.139821
	call	_Unwind_Resume	 #
.LEHE19:
.L142:
 # D:/programs/partical_life/calcflow.cpp:130: 	}
	mov	rax, QWORD PTR 288[rbp]	 #, .result_ptr
	add	rsp, 384	 #,
	pop	rbx	 #
	pop	rsi	 #
	pop	rbp	 #
	ret	
	.seh_handler	__gxx_personality_seh0, @unwind, @except
	.seh_handlerdata
.LLSDA4746:
	.byte	0xff
	.byte	0xff
	.byte	0x1
	.uleb128 .LLSDACSE4746-.LLSDACSB4746
.LLSDACSB4746:
	.uleb128 .LEHB6-.LFB4746
	.uleb128 .LEHE6-.LEHB6
	.uleb128 .L197-.LFB4746
	.uleb128 0
	.uleb128 .LEHB7-.LFB4746
	.uleb128 .LEHE7-.LEHB7
	.uleb128 0
	.uleb128 0
	.uleb128 .LEHB8-.LFB4746
	.uleb128 .LEHE8-.LEHB8
	.uleb128 .L198-.LFB4746
	.uleb128 0
	.uleb128 .LEHB9-.LFB4746
	.uleb128 .LEHE9-.LEHB9
	.uleb128 .L199-.LFB4746
	.uleb128 0
	.uleb128 .LEHB10-.LFB4746
	.uleb128 .LEHE10-.LEHB10
	.uleb128 .L200-.LFB4746
	.uleb128 0
	.uleb128 .LEHB11-.LFB4746
	.uleb128 .LEHE11-.LEHB11
	.uleb128 0
	.uleb128 0
	.uleb128 .LEHB12-.LFB4746
	.uleb128 .LEHE12-.LEHB12
	.uleb128 .L201-.LFB4746
	.uleb128 0
	.uleb128 .LEHB13-.LFB4746
	.uleb128 .LEHE13-.LEHB13
	.uleb128 0
	.uleb128 0
	.uleb128 .LEHB14-.LFB4746
	.uleb128 .LEHE14-.LEHB14
	.uleb128 .L202-.LFB4746
	.uleb128 0
	.uleb128 .LEHB15-.LFB4746
	.uleb128 .LEHE15-.LEHB15
	.uleb128 0
	.uleb128 0
	.uleb128 .LEHB16-.LFB4746
	.uleb128 .LEHE16-.LEHB16
	.uleb128 .L203-.LFB4746
	.uleb128 0
	.uleb128 .LEHB17-.LFB4746
	.uleb128 .LEHE17-.LEHB17
	.uleb128 0
	.uleb128 0
	.uleb128 .LEHB18-.LFB4746
	.uleb128 .LEHE18-.LEHB18
	.uleb128 .L204-.LFB4746
	.uleb128 0
	.uleb128 .LEHB19-.LFB4746
	.uleb128 .LEHE19-.LEHB19
	.uleb128 0
	.uleb128 0
.LLSDACSE4746:
	.section	.text$_ZNK4Calc11computeStepERK8CalcStep,"x"
	.linkonce discard
	.seh_endproc
	.section	.text$_ZN4Calc9calculateERKSt13unordered_mapINSt7__cxx1112basic_stringIcSt11char_traitsIcESaIcEEESt7complexIdESt4hashIS6_ESt8equal_toIS6_ESaISt4pairIKS6_S8_EEE,"x"
	.linkonce discard
	.align 2
	.globl	_ZN4Calc9calculateERKSt13unordered_mapINSt7__cxx1112basic_stringIcSt11char_traitsIcESaIcEEESt7complexIdESt4hashIS6_ESt8equal_toIS6_ESaISt4pairIKS6_S8_EEE
	.def	_ZN4Calc9calculateERKSt13unordered_mapINSt7__cxx1112basic_stringIcSt11char_traitsIcESaIcEEESt7complexIdESt4hashIS6_ESt8equal_toIS6_ESaISt4pairIKS6_S8_EEE;	.scl	2;	.type	32;	.endef
	.seh_proc	_ZN4Calc9calculateERKSt13unordered_mapINSt7__cxx1112basic_stringIcSt11char_traitsIcESaIcEEESt7complexIdESt4hashIS6_ESt8equal_toIS6_ESaISt4pairIKS6_S8_EEE
_ZN4Calc9calculateERKSt13unordered_mapINSt7__cxx1112basic_stringIcSt11char_traitsIcESaIcEEESt7complexIdESt4hashIS6_ESt8equal_toIS6_ESaISt4pairIKS6_S8_EEE:
.LFB4752:
	push	rbp	 #
	.seh_pushreg	rbp
	push	rbx	 #
	.seh_pushreg	rbx
	sub	rsp, 104	 #,
	.seh_stackalloc	104
	lea	rbp, 96[rsp]	 #,
	.seh_setframe	rbp, 96
	.seh_endprologue
	mov	QWORD PTR 32[rbp], rcx	 # .result_ptr, .result_ptr
	mov	QWORD PTR 40[rbp], rdx	 # this, this
	mov	QWORD PTR 48[rbp], r8	 # vars, vars
 # D:/programs/partical_life/calcflow.cpp:134: 		for (const auto& kv : vars) variables[kv.first] = kv.second;
	mov	rax, QWORD PTR 48[rbp]	 # tmp107, vars
	mov	QWORD PTR -8[rbp], rax	 # __for_range, tmp107
	mov	rax, QWORD PTR -8[rbp]	 # tmp108, __for_range
	mov	rcx, rax	 #, tmp108
	call	_ZNKSt13unordered_mapINSt7__cxx1112basic_stringIcSt11char_traitsIcESaIcEEESt7complexIdESt4hashIS5_ESt8equal_toIS5_ESaISt4pairIKS5_S7_EEE5beginEv	 #
	mov	QWORD PTR -32[rbp], rax	 # __for_begin, tmp110
 # D:/programs/partical_life/calcflow.cpp:134: 		for (const auto& kv : vars) variables[kv.first] = kv.second;
	mov	rax, QWORD PTR -8[rbp]	 # tmp111, __for_range
	mov	rcx, rax	 #, tmp111
	call	_ZNKSt13unordered_mapINSt7__cxx1112basic_stringIcSt11char_traitsIcESaIcEEESt7complexIdESt4hashIS5_ESt8equal_toIS5_ESaISt4pairIKS5_S7_EEE3endEv	 #
	mov	QWORD PTR -40[rbp], rax	 # __for_end, tmp113
 # D:/programs/partical_life/calcflow.cpp:134: 		for (const auto& kv : vars) variables[kv.first] = kv.second;
	jmp	.L206	 #
.L207:
 # D:/programs/partical_life/calcflow.cpp:134: 		for (const auto& kv : vars) variables[kv.first] = kv.second;
	lea	rax, -32[rbp]	 # tmp114,
	mov	rcx, rax	 #, tmp114
	call	_ZNKSt8__detail20_Node_const_iteratorISt4pairIKNSt7__cxx1112basic_stringIcSt11char_traitsIcESaIcEEESt7complexIdEELb0ELb1EEdeEv	 #
	mov	QWORD PTR -24[rbp], rax	 # kv, tmp115
 # D:/programs/partical_life/calcflow.cpp:134: 		for (const auto& kv : vars) variables[kv.first] = kv.second;
	mov	rax, QWORD PTR 40[rbp]	 # _1, this
 # D:/programs/partical_life/calcflow.cpp:134: 		for (const auto& kv : vars) variables[kv.first] = kv.second;
	mov	rdx, QWORD PTR -24[rbp]	 # _2, kv
 # D:/programs/partical_life/calcflow.cpp:134: 		for (const auto& kv : vars) variables[kv.first] = kv.second;
	mov	rcx, rax	 #, _1
	call	_ZNSt13unordered_mapINSt7__cxx1112basic_stringIcSt11char_traitsIcESaIcEEESt7complexIdESt4hashIS5_ESt8equal_toIS5_ESaISt4pairIKS5_S7_EEEixERSD_	 #
 # D:/programs/partical_life/calcflow.cpp:134: 		for (const auto& kv : vars) variables[kv.first] = kv.second;
	mov	rdx, QWORD PTR -24[rbp]	 # tmp116, kv
	movsd	xmm0, QWORD PTR 32[rdx]	 # tmp117, kv_29->second
	movsd	QWORD PTR [rax], xmm0	 # *_3, tmp117
	movsd	xmm0, QWORD PTR 40[rdx]	 # tmp118, kv_29->second
	movsd	QWORD PTR 8[rax], xmm0	 # *_3, tmp118
 # D:/programs/partical_life/calcflow.cpp:134: 		for (const auto& kv : vars) variables[kv.first] = kv.second;
	lea	rax, -32[rbp]	 # tmp119,
	mov	rcx, rax	 #, tmp119
	call	_ZNSt8__detail20_Node_const_iteratorISt4pairIKNSt7__cxx1112basic_stringIcSt11char_traitsIcESaIcEEESt7complexIdEELb0ELb1EEppEv	 #
.L206:
 # D:/programs/partical_life/calcflow.cpp:134: 		for (const auto& kv : vars) variables[kv.first] = kv.second;
	lea	rdx, -40[rbp]	 # tmp120,
	lea	rax, -32[rbp]	 # tmp121,
	mov	rcx, rax	 #, tmp121
	call	_ZNSt8__detailneERKNS_20_Node_const_iteratorISt4pairIKNSt7__cxx1112basic_stringIcSt11char_traitsIcESaIcEEESt7complexIdEELb0ELb1EEESE_	 #
 # D:/programs/partical_life/calcflow.cpp:134: 		for (const auto& kv : vars) variables[kv.first] = kv.second;
	test	al, al	 # retval.265_16
	jne	.L207	 #,
 # D:/programs/partical_life/calcflow.cpp:137: 		calcflow.reset();
	mov	rax, QWORD PTR 40[rbp]	 # tmp122, this
	add	rax, 56	 # _4,
	mov	rcx, rax	 #, _4
	call	_ZN8Calcflow5resetEv	 #
 # D:/programs/partical_life/calcflow.cpp:139: 		Complex last{0.0, 0.0};
	mov	rax, QWORD PTR 32[rbp]	 # tmp123, .result_ptr
	pxor	xmm0, xmm0	 # tmp124
	movsd	QWORD PTR [rax], xmm0	 # REALPART_EXPR <<retval>._M_value>, tmp124
	mov	rax, QWORD PTR 32[rbp]	 # tmp125, .result_ptr
	pxor	xmm0, xmm0	 # tmp126
	movsd	QWORD PTR 8[rax], xmm0	 # IMAGPART_EXPR <<retval>._M_value>, tmp126
 # D:/programs/partical_life/calcflow.cpp:140: 		while (calcflow.hasCurrent()) {
	jmp	.L208	 #
.L209:
 # D:/programs/partical_life/calcflow.cpp:141: 			auto& st = calcflow.current();
	mov	rax, QWORD PTR 40[rbp]	 # tmp127, this
	add	rax, 56	 # _5,
	mov	rcx, rax	 #, _5
	call	_ZN8Calcflow7currentEv	 #
	mov	QWORD PTR -16[rbp], rax	 # st, tmp128
 # D:/programs/partical_life/calcflow.cpp:142: 			last = computeStep(st);
	mov	rbx, QWORD PTR 32[rbp]	 # tmp129, .result_ptr
	lea	rax, -64[rbp]	 # tmp130,
	mov	rcx, QWORD PTR -16[rbp]	 # tmp131, st
	mov	rdx, QWORD PTR 40[rbp]	 # tmp132, this
	mov	r8, rcx	 #, tmp131
	mov	rcx, rax	 #, tmp130
	call	_ZNK4Calc11computeStepERK8CalcStep	 #
	movsd	xmm0, QWORD PTR -64[rbp]	 # tmp133,
	movsd	QWORD PTR [rbx], xmm0	 # <retval>, tmp133
	movsd	xmm0, QWORD PTR -56[rbp]	 # tmp134,
	movsd	QWORD PTR 8[rbx], xmm0	 # <retval>, tmp134
 # D:/programs/partical_life/calcflow.cpp:143: 			calcflow.pushResultAndAdvance(last);
	mov	rax, QWORD PTR 40[rbp]	 # tmp135, this
	lea	rcx, 56[rax]	 # _6,
	mov	rax, QWORD PTR 32[rbp]	 # tmp136, .result_ptr
	mov	rdx, rax	 #, tmp136
	call	_ZN8Calcflow20pushResultAndAdvanceERKSt7complexIdE	 #
.L208:
 # D:/programs/partical_life/calcflow.cpp:140: 		while (calcflow.hasCurrent()) {
	mov	rax, QWORD PTR 40[rbp]	 # tmp137, this
	add	rax, 56	 # _7,
	mov	rcx, rax	 #, _7
	call	_ZNK8Calcflow10hasCurrentEv	 #
 # D:/programs/partical_life/calcflow.cpp:140: 		while (calcflow.hasCurrent()) {
	test	al, al	 # retval.266_23
	jne	.L209	 #,
 # D:/programs/partical_life/calcflow.cpp:145: 		return last;
	nop	
 # D:/programs/partical_life/calcflow.cpp:146: 	}
	mov	rax, QWORD PTR 32[rbp]	 #, .result_ptr
	add	rsp, 104	 #,
	pop	rbx	 #
	pop	rbp	 #
	ret	
	.seh_endproc
	.section	.text$_ZNK9Tokenizer4peekEv,"x"
	.linkonce discard
	.align 2
	.globl	_ZNK9Tokenizer4peekEv
	.def	_ZNK9Tokenizer4peekEv;	.scl	2;	.type	32;	.endef
	.seh_proc	_ZNK9Tokenizer4peekEv
_ZNK9Tokenizer4peekEv:
.LFB4753:
	push	rbp	 #
	.seh_pushreg	rbp
	push	rbx	 #
	.seh_pushreg	rbx
	sub	rsp, 40	 #,
	.seh_stackalloc	40
	lea	rbp, 32[rsp]	 #,
	.seh_setframe	rbp, 32
	.seh_endprologue
	mov	QWORD PTR 32[rbp], rcx	 # this, this
 # D:/programs/partical_life/calcflow.cpp:168: 	char peek() const { return i < s.size() ? s[i] : '\0'; }
	mov	rax, QWORD PTR 32[rbp]	 # tmp106, this
	mov	rbx, QWORD PTR 32[rax]	 # _1, this_10(D)->i
 # D:/programs/partical_life/calcflow.cpp:168: 	char peek() const { return i < s.size() ? s[i] : '\0'; }
	mov	rax, QWORD PTR 32[rbp]	 # _2, this
	mov	rcx, rax	 #, _2
	call	_ZNKSt7__cxx1112basic_stringIcSt11char_traitsIcESaIcEE4sizeEv	 #
 # D:/programs/partical_life/calcflow.cpp:168: 	char peek() const { return i < s.size() ? s[i] : '\0'; }
	cmp	rbx, rax	 # _1, _3
	jnb	.L212	 #,
 # D:/programs/partical_life/calcflow.cpp:168: 	char peek() const { return i < s.size() ? s[i] : '\0'; }
	mov	rax, QWORD PTR 32[rbp]	 # _4, this
 # D:/programs/partical_life/calcflow.cpp:168: 	char peek() const { return i < s.size() ? s[i] : '\0'; }
	mov	rdx, QWORD PTR 32[rbp]	 # tmp107, this
	mov	rdx, QWORD PTR 32[rdx]	 # _5, this_10(D)->i
 # D:/programs/partical_life/calcflow.cpp:168: 	char peek() const { return i < s.size() ? s[i] : '\0'; }
	mov	rcx, rax	 #, _4
	call	_ZNKSt7__cxx1112basic_stringIcSt11char_traitsIcESaIcEEixEy	 #
 # D:/programs/partical_life/calcflow.cpp:168: 	char peek() const { return i < s.size() ? s[i] : '\0'; }
	movzx	eax, BYTE PTR [rax]	 # _7, *_6
 # D:/programs/partical_life/calcflow.cpp:168: 	char peek() const { return i < s.size() ? s[i] : '\0'; }
	jmp	.L214	 #
.L212:
 # D:/programs/partical_life/calcflow.cpp:168: 	char peek() const { return i < s.size() ? s[i] : '\0'; }
	mov	eax, 0	 # _7,
.L214:
 # D:/programs/partical_life/calcflow.cpp:168: 	char peek() const { return i < s.size() ? s[i] : '\0'; }
	add	rsp, 40	 #,
	pop	rbx	 #
	pop	rbp	 #
	ret	
	.seh_endproc
	.section	.text$_ZNSt12_Vector_baseI5TokenSaIS0_EE12_Vector_implD1Ev,"x"
	.linkonce discard
	.align 2
	.globl	_ZNSt12_Vector_baseI5TokenSaIS0_EE12_Vector_implD1Ev
	.def	_ZNSt12_Vector_baseI5TokenSaIS0_EE12_Vector_implD1Ev;	.scl	2;	.type	32;	.endef
	.seh_proc	_ZNSt12_Vector_baseI5TokenSaIS0_EE12_Vector_implD1Ev
_ZNSt12_Vector_baseI5TokenSaIS0_EE12_Vector_implD1Ev:
.LFB4761:
	push	rbp	 #
	.seh_pushreg	rbp
	mov	rbp, rsp	 #,
	.seh_setframe	rbp, 0
	sub	rsp, 48	 #,
	.seh_stackalloc	48
	.seh_endprologue
	mov	QWORD PTR 16[rbp], rcx	 # this, this
	mov	rax, QWORD PTR 16[rbp]	 # tmp98, this
	mov	QWORD PTR -8[rbp], rax	 # this, tmp98
 # D:/mingw/mingw64/include/c++/15.1.0/bits/allocator.h:189:       ~allocator() _GLIBCXX_NOTHROW { }
	mov	rax, QWORD PTR -8[rbp]	 # tmp99, this
	mov	rcx, rax	 #, tmp99
	call	_ZNSt15__new_allocatorI5TokenED2Ev	 #
	nop	
 # D:/mingw/mingw64/include/c++/15.1.0/bits/stl_vector.h:139:       struct _Vector_impl
	nop	
	add	rsp, 48	 #,
	pop	rbp	 #
	ret	
	.seh_endproc
	.section	.text$_ZNSt12_Vector_baseI5TokenSaIS0_EEC2Ev,"x"
	.linkonce discard
	.align 2
	.globl	_ZNSt12_Vector_baseI5TokenSaIS0_EEC2Ev
	.def	_ZNSt12_Vector_baseI5TokenSaIS0_EEC2Ev;	.scl	2;	.type	32;	.endef
	.seh_proc	_ZNSt12_Vector_baseI5TokenSaIS0_EEC2Ev
_ZNSt12_Vector_baseI5TokenSaIS0_EEC2Ev:
.LFB4762:
	push	rbp	 #
	.seh_pushreg	rbp
	mov	rbp, rsp	 #,
	.seh_setframe	rbp, 0
	sub	rsp, 32	 #,
	.seh_stackalloc	32
	.seh_endprologue
	mov	QWORD PTR 16[rbp], rcx	 # this, this
 # D:/mingw/mingw64/include/c++/15.1.0/bits/stl_vector.h:321:       _Vector_base() = default;
	mov	rax, QWORD PTR 16[rbp]	 # _1, this
	mov	rcx, rax	 #, _1
	call	_ZNSt12_Vector_baseI5TokenSaIS0_EE12_Vector_implC1Ev	 #
	nop	
	add	rsp, 32	 #,
	pop	rbp	 #
	ret	
	.seh_endproc
	.section	.text$_ZNSt6vectorI5TokenSaIS0_EEC1Ev,"x"
	.linkonce discard
	.align 2
	.globl	_ZNSt6vectorI5TokenSaIS0_EEC1Ev
	.def	_ZNSt6vectorI5TokenSaIS0_EEC1Ev;	.scl	2;	.type	32;	.endef
	.seh_proc	_ZNSt6vectorI5TokenSaIS0_EEC1Ev
_ZNSt6vectorI5TokenSaIS0_EEC1Ev:
.LFB4765:
	push	rbp	 #
	.seh_pushreg	rbp
	mov	rbp, rsp	 #,
	.seh_setframe	rbp, 0
	sub	rsp, 32	 #,
	.seh_stackalloc	32
	.seh_endprologue
	mov	QWORD PTR 16[rbp], rcx	 # this, this
 # D:/mingw/mingw64/include/c++/15.1.0/bits/stl_vector.h:561:       vector() = default;
	mov	rax, QWORD PTR 16[rbp]	 # _1, this
	mov	rcx, rax	 #, _1
	call	_ZNSt12_Vector_baseI5TokenSaIS0_EEC2Ev	 #
	nop	
	add	rsp, 32	 #,
	pop	rbp	 #
	ret	
	.seh_endproc
	.section	.text$_ZN5TokenD1Ev,"x"
	.linkonce discard
	.align 2
	.globl	_ZN5TokenD1Ev
	.def	_ZN5TokenD1Ev;	.scl	2;	.type	32;	.endef
	.seh_proc	_ZN5TokenD1Ev
_ZN5TokenD1Ev:
.LFB4768:
	push	rbp	 #
	.seh_pushreg	rbp
	mov	rbp, rsp	 #,
	.seh_setframe	rbp, 0
	sub	rsp, 32	 #,
	.seh_stackalloc	32
	.seh_endprologue
	mov	QWORD PTR 16[rbp], rcx	 # this, this
 # D:/programs/partical_life/calcflow.cpp:153: struct Token {
	mov	rax, QWORD PTR 16[rbp]	 # tmp99, this
	add	rax, 8	 # _1,
	mov	rcx, rax	 #, _1
	call	_ZNSt7__cxx1112basic_stringIcSt11char_traitsIcESaIcEED1Ev	 #
	nop	
	add	rsp, 32	 #,
	pop	rbp	 #
	ret	
	.seh_endproc
	.section .rdata,"dr"
.LC12:
	.ascii "+\0"
.LC13:
	.ascii "-\0"
.LC14:
	.ascii "*\0"
.LC15:
	.ascii "/\0"
.LC16:
	.ascii "^\0"
.LC17:
	.ascii "(\0"
.LC18:
	.ascii ")\0"
.LC19:
	.ascii ",\0"
.LC20:
	.ascii "\351\235\236\346\263\225\345\255\227\347\254\246: \0"
	.section	.text$_ZN9Tokenizer3lexERKNSt7__cxx1112basic_stringIcSt11char_traitsIcESaIcEEE,"x"
	.linkonce discard
	.align 2
	.globl	_ZN9Tokenizer3lexERKNSt7__cxx1112basic_stringIcSt11char_traitsIcESaIcEEE
	.def	_ZN9Tokenizer3lexERKNSt7__cxx1112basic_stringIcSt11char_traitsIcESaIcEEE;	.scl	2;	.type	32;	.endef
	.seh_proc	_ZN9Tokenizer3lexERKNSt7__cxx1112basic_stringIcSt11char_traitsIcESaIcEEE
_ZN9Tokenizer3lexERKNSt7__cxx1112basic_stringIcSt11char_traitsIcESaIcEEE:
.LFB4755:
	push	rbp	 #
	.seh_pushreg	rbp
	push	rsi	 #
	.seh_pushreg	rsi
	push	rbx	 #
	.seh_pushreg	rbx
	sub	rsp, 784	 #,
	.seh_stackalloc	784
	lea	rbp, 128[rsp]	 #,
	.seh_setframe	rbp, 128
	.seh_endprologue
	mov	QWORD PTR 688[rbp], rcx	 # .result_ptr, .result_ptr
	mov	QWORD PTR 696[rbp], rdx	 # this, this
	mov	QWORD PTR 704[rbp], r8	 # expr, expr
 # D:/programs/partical_life/calcflow.cpp:172: 		s = expr; i = 0; std::vector<Token> toks;
	mov	rax, QWORD PTR 696[rbp]	 # _1, this
	mov	rdx, QWORD PTR 704[rbp]	 # tmp213, expr
	mov	rcx, rax	 #, _1
.LEHB20:
	call	_ZNSt7__cxx1112basic_stringIcSt11char_traitsIcESaIcEEaSERKS4_	 #
.LEHE20:
 # D:/programs/partical_life/calcflow.cpp:172: 		s = expr; i = 0; std::vector<Token> toks;
	mov	rax, QWORD PTR 696[rbp]	 # tmp214, this
	mov	QWORD PTR 32[rax], 0	 # this_142(D)->i,
 # D:/programs/partical_life/calcflow.cpp:172: 		s = expr; i = 0; std::vector<Token> toks;
	mov	rax, QWORD PTR 688[rbp]	 # tmp215, <retval>
	mov	rcx, rax	 #, tmp215
	call	_ZNSt6vectorI5TokenSaIS0_EEC1Ev	 #
 # D:/programs/partical_life/calcflow.cpp:173: 		while (i < s.size()) {
	jmp	.L220	 #
.L251:
 # D:/programs/partical_life/calcflow.cpp:174: 			char ch = peek();
	mov	rax, QWORD PTR 696[rbp]	 # tmp216, this
	mov	rcx, rax	 #, tmp216
	call	_ZNK9Tokenizer4peekEv	 #
	mov	BYTE PTR 655[rbp], al	 # ch, tmp217
 # D:/programs/partical_life/calcflow.cpp:175: 			if (std::isspace(static_cast<unsigned char>(ch))) { ++i; continue; }
	movzx	eax, BYTE PTR 655[rbp]	 # ch.107_2, ch
 # D:/programs/partical_life/calcflow.cpp:175: 			if (std::isspace(static_cast<unsigned char>(ch))) { ++i; continue; }
	movzx	eax, al	 # _3, ch.107_2
	mov	ecx, eax	 #, _3
	mov	rax, QWORD PTR __imp_isspace[rip]	 # tmp218,
	call	rax	 # tmp218
 # D:/programs/partical_life/calcflow.cpp:175: 			if (std::isspace(static_cast<unsigned char>(ch))) { ++i; continue; }
	test	eax, eax	 # _4
	je	.L221	 #,
 # D:/programs/partical_life/calcflow.cpp:175: 			if (std::isspace(static_cast<unsigned char>(ch))) { ++i; continue; }
	mov	rax, QWORD PTR 696[rbp]	 # tmp219, this
	mov	rax, QWORD PTR 32[rax]	 # _5, this_142(D)->i
 # D:/programs/partical_life/calcflow.cpp:175: 			if (std::isspace(static_cast<unsigned char>(ch))) { ++i; continue; }
	lea	rdx, 1[rax]	 # _6,
	mov	rax, QWORD PTR 696[rbp]	 # tmp220, this
	mov	QWORD PTR 32[rax], rdx	 # this_142(D)->i, _6
 # D:/programs/partical_life/calcflow.cpp:175: 			if (std::isspace(static_cast<unsigned char>(ch))) { ++i; continue; }
	jmp	.L220	 #
.L221:
 # D:/programs/partical_life/calcflow.cpp:176: 			if (std::isdigit(static_cast<unsigned char>(ch)) || (ch == '.' && i+1 < s.size() && std::isdigit(static_cast<unsigned char>(s[i+1])))) {
	movzx	eax, BYTE PTR 655[rbp]	 # ch.110_7, ch
 # D:/programs/partical_life/calcflow.cpp:176: 			if (std::isdigit(static_cast<unsigned char>(ch)) || (ch == '.' && i+1 < s.size() && std::isdigit(static_cast<unsigned char>(s[i+1])))) {
	movzx	eax, al	 # _8, ch.110_7
	sub	eax, 48	 # _9,
	cmp	eax, 9	 # _9,
	setbe	al	 #, _10
	movzx	eax, al	 # _11, _10
 # D:/programs/partical_life/calcflow.cpp:176: 			if (std::isdigit(static_cast<unsigned char>(ch)) || (ch == '.' && i+1 < s.size() && std::isdigit(static_cast<unsigned char>(s[i+1])))) {
	test	eax, eax	 # _11
	jne	.L222	 #,
 # D:/programs/partical_life/calcflow.cpp:176: 			if (std::isdigit(static_cast<unsigned char>(ch)) || (ch == '.' && i+1 < s.size() && std::isdigit(static_cast<unsigned char>(s[i+1])))) {
	cmp	BYTE PTR 655[rbp], 46	 # ch,
	jne	.L223	 #,
 # D:/programs/partical_life/calcflow.cpp:176: 			if (std::isdigit(static_cast<unsigned char>(ch)) || (ch == '.' && i+1 < s.size() && std::isdigit(static_cast<unsigned char>(s[i+1])))) {
	mov	rax, QWORD PTR 696[rbp]	 # tmp221, this
	mov	rax, QWORD PTR 32[rax]	 # _12, this_142(D)->i
 # D:/programs/partical_life/calcflow.cpp:176: 			if (std::isdigit(static_cast<unsigned char>(ch)) || (ch == '.' && i+1 < s.size() && std::isdigit(static_cast<unsigned char>(s[i+1])))) {
	lea	rbx, 1[rax]	 # _13,
 # D:/programs/partical_life/calcflow.cpp:176: 			if (std::isdigit(static_cast<unsigned char>(ch)) || (ch == '.' && i+1 < s.size() && std::isdigit(static_cast<unsigned char>(s[i+1])))) {
	mov	rax, QWORD PTR 696[rbp]	 # _14, this
	mov	rcx, rax	 #, _14
	call	_ZNKSt7__cxx1112basic_stringIcSt11char_traitsIcESaIcEE4sizeEv	 #
 # D:/programs/partical_life/calcflow.cpp:176: 			if (std::isdigit(static_cast<unsigned char>(ch)) || (ch == '.' && i+1 < s.size() && std::isdigit(static_cast<unsigned char>(s[i+1])))) {
	cmp	rbx, rax	 # _13, _15
	jnb	.L223	 #,
 # D:/programs/partical_life/calcflow.cpp:176: 			if (std::isdigit(static_cast<unsigned char>(ch)) || (ch == '.' && i+1 < s.size() && std::isdigit(static_cast<unsigned char>(s[i+1])))) {
	mov	rax, QWORD PTR 696[rbp]	 # _16, this
 # D:/programs/partical_life/calcflow.cpp:176: 			if (std::isdigit(static_cast<unsigned char>(ch)) || (ch == '.' && i+1 < s.size() && std::isdigit(static_cast<unsigned char>(s[i+1])))) {
	mov	rdx, QWORD PTR 696[rbp]	 # tmp222, this
	mov	rdx, QWORD PTR 32[rdx]	 # _17, this_142(D)->i
 # D:/programs/partical_life/calcflow.cpp:176: 			if (std::isdigit(static_cast<unsigned char>(ch)) || (ch == '.' && i+1 < s.size() && std::isdigit(static_cast<unsigned char>(s[i+1])))) {
	add	rdx, 1	 # _18,
	mov	rcx, rax	 #, _16
.LEHB21:
	call	_ZNSt7__cxx1112basic_stringIcSt11char_traitsIcESaIcEEixEy	 #
 # D:/programs/partical_life/calcflow.cpp:176: 			if (std::isdigit(static_cast<unsigned char>(ch)) || (ch == '.' && i+1 < s.size() && std::isdigit(static_cast<unsigned char>(s[i+1])))) {
	movzx	eax, BYTE PTR [rax]	 # _20, *_19
 # D:/programs/partical_life/calcflow.cpp:176: 			if (std::isdigit(static_cast<unsigned char>(ch)) || (ch == '.' && i+1 < s.size() && std::isdigit(static_cast<unsigned char>(s[i+1])))) {
	movzx	eax, al	 # _22, _21
	sub	eax, 48	 # _23,
	cmp	eax, 9	 # _23,
	setbe	al	 #, _24
	movzx	eax, al	 # _25, _24
 # D:/programs/partical_life/calcflow.cpp:176: 			if (std::isdigit(static_cast<unsigned char>(ch)) || (ch == '.' && i+1 < s.size() && std::isdigit(static_cast<unsigned char>(s[i+1])))) {
	test	eax, eax	 # _25
	je	.L223	 #,
.L222:
 # D:/programs/partical_life/calcflow.cpp:176: 			if (std::isdigit(static_cast<unsigned char>(ch)) || (ch == '.' && i+1 < s.size() && std::isdigit(static_cast<unsigned char>(s[i+1])))) {
	mov	eax, 1	 # iftmp.109_108,
 # D:/programs/partical_life/calcflow.cpp:176: 			if (std::isdigit(static_cast<unsigned char>(ch)) || (ch == '.' && i+1 < s.size() && std::isdigit(static_cast<unsigned char>(s[i+1])))) {
	jmp	.L224	 #
.L223:
 # D:/programs/partical_life/calcflow.cpp:176: 			if (std::isdigit(static_cast<unsigned char>(ch)) || (ch == '.' && i+1 < s.size() && std::isdigit(static_cast<unsigned char>(s[i+1])))) {
	mov	eax, 0	 # iftmp.109_108,
.L224:
 # D:/programs/partical_life/calcflow.cpp:176: 			if (std::isdigit(static_cast<unsigned char>(ch)) || (ch == '.' && i+1 < s.size() && std::isdigit(static_cast<unsigned char>(s[i+1])))) {
	test	al, al	 # iftmp.109_108
	je	.L225	 #,
 # D:/programs/partical_life/calcflow.cpp:177: 				size_t start = i; ++i;
	mov	rax, QWORD PTR 696[rbp]	 # tmp223, this
	mov	rax, QWORD PTR 32[rax]	 # tmp224, this_142(D)->i
	mov	QWORD PTR 632[rbp], rax	 # start, tmp224
 # D:/programs/partical_life/calcflow.cpp:177: 				size_t start = i; ++i;
	mov	rax, QWORD PTR 696[rbp]	 # tmp225, this
	mov	rax, QWORD PTR 32[rax]	 # _26, this_142(D)->i
 # D:/programs/partical_life/calcflow.cpp:177: 				size_t start = i; ++i;
	lea	rdx, 1[rax]	 # _27,
	mov	rax, QWORD PTR 696[rbp]	 # tmp226, this
	mov	QWORD PTR 32[rax], rdx	 # this_142(D)->i, _27
 # D:/programs/partical_life/calcflow.cpp:178: 				while (i < s.size() && (std::isdigit(static_cast<unsigned char>(s[i])) || s[i]=='.')) ++i;
	jmp	.L226	 #
.L230:
 # D:/programs/partical_life/calcflow.cpp:178: 				while (i < s.size() && (std::isdigit(static_cast<unsigned char>(s[i])) || s[i]=='.')) ++i;
	mov	rax, QWORD PTR 696[rbp]	 # tmp227, this
	mov	rax, QWORD PTR 32[rax]	 # _28, this_142(D)->i
 # D:/programs/partical_life/calcflow.cpp:178: 				while (i < s.size() && (std::isdigit(static_cast<unsigned char>(s[i])) || s[i]=='.')) ++i;
	lea	rdx, 1[rax]	 # _29,
	mov	rax, QWORD PTR 696[rbp]	 # tmp228, this
	mov	QWORD PTR 32[rax], rdx	 # this_142(D)->i, _29
.L226:
 # D:/programs/partical_life/calcflow.cpp:178: 				while (i < s.size() && (std::isdigit(static_cast<unsigned char>(s[i])) || s[i]=='.')) ++i;
	mov	rax, QWORD PTR 696[rbp]	 # tmp229, this
	mov	rbx, QWORD PTR 32[rax]	 # _30, this_142(D)->i
 # D:/programs/partical_life/calcflow.cpp:178: 				while (i < s.size() && (std::isdigit(static_cast<unsigned char>(s[i])) || s[i]=='.')) ++i;
	mov	rax, QWORD PTR 696[rbp]	 # _31, this
	mov	rcx, rax	 #, _31
	call	_ZNKSt7__cxx1112basic_stringIcSt11char_traitsIcESaIcEE4sizeEv	 #
 # D:/programs/partical_life/calcflow.cpp:178: 				while (i < s.size() && (std::isdigit(static_cast<unsigned char>(s[i])) || s[i]=='.')) ++i;
	cmp	rbx, rax	 # _30, _32
	jnb	.L227	 #,
 # D:/programs/partical_life/calcflow.cpp:178: 				while (i < s.size() && (std::isdigit(static_cast<unsigned char>(s[i])) || s[i]=='.')) ++i;
	mov	rax, QWORD PTR 696[rbp]	 # _33, this
 # D:/programs/partical_life/calcflow.cpp:178: 				while (i < s.size() && (std::isdigit(static_cast<unsigned char>(s[i])) || s[i]=='.')) ++i;
	mov	rdx, QWORD PTR 696[rbp]	 # tmp230, this
	mov	rdx, QWORD PTR 32[rdx]	 # _34, this_142(D)->i
 # D:/programs/partical_life/calcflow.cpp:178: 				while (i < s.size() && (std::isdigit(static_cast<unsigned char>(s[i])) || s[i]=='.')) ++i;
	mov	rcx, rax	 #, _33
	call	_ZNSt7__cxx1112basic_stringIcSt11char_traitsIcESaIcEEixEy	 #
 # D:/programs/partical_life/calcflow.cpp:178: 				while (i < s.size() && (std::isdigit(static_cast<unsigned char>(s[i])) || s[i]=='.')) ++i;
	movzx	eax, BYTE PTR [rax]	 # _36, *_35
 # D:/programs/partical_life/calcflow.cpp:178: 				while (i < s.size() && (std::isdigit(static_cast<unsigned char>(s[i])) || s[i]=='.')) ++i;
	movzx	eax, al	 # _38, _37
	sub	eax, 48	 # _39,
	cmp	eax, 9	 # _39,
	setbe	al	 #, _40
	movzx	eax, al	 # _41, _40
 # D:/programs/partical_life/calcflow.cpp:178: 				while (i < s.size() && (std::isdigit(static_cast<unsigned char>(s[i])) || s[i]=='.')) ++i;
	test	eax, eax	 # _41
	jne	.L228	 #,
 # D:/programs/partical_life/calcflow.cpp:178: 				while (i < s.size() && (std::isdigit(static_cast<unsigned char>(s[i])) || s[i]=='.')) ++i;
	mov	rax, QWORD PTR 696[rbp]	 # _42, this
 # D:/programs/partical_life/calcflow.cpp:178: 				while (i < s.size() && (std::isdigit(static_cast<unsigned char>(s[i])) || s[i]=='.')) ++i;
	mov	rdx, QWORD PTR 696[rbp]	 # tmp231, this
	mov	rdx, QWORD PTR 32[rdx]	 # _43, this_142(D)->i
 # D:/programs/partical_life/calcflow.cpp:178: 				while (i < s.size() && (std::isdigit(static_cast<unsigned char>(s[i])) || s[i]=='.')) ++i;
	mov	rcx, rax	 #, _42
	call	_ZNSt7__cxx1112basic_stringIcSt11char_traitsIcESaIcEEixEy	 #
 # D:/programs/partical_life/calcflow.cpp:178: 				while (i < s.size() && (std::isdigit(static_cast<unsigned char>(s[i])) || s[i]=='.')) ++i;
	movzx	eax, BYTE PTR [rax]	 # _45, *_44
 # D:/programs/partical_life/calcflow.cpp:178: 				while (i < s.size() && (std::isdigit(static_cast<unsigned char>(s[i])) || s[i]=='.')) ++i;
	cmp	al, 46	 # _45,
	jne	.L227	 #,
.L228:
 # D:/programs/partical_life/calcflow.cpp:178: 				while (i < s.size() && (std::isdigit(static_cast<unsigned char>(s[i])) || s[i]=='.')) ++i;
	mov	eax, 1	 # iftmp.112_109,
 # D:/programs/partical_life/calcflow.cpp:178: 				while (i < s.size() && (std::isdigit(static_cast<unsigned char>(s[i])) || s[i]=='.')) ++i;
	jmp	.L229	 #
.L227:
 # D:/programs/partical_life/calcflow.cpp:178: 				while (i < s.size() && (std::isdigit(static_cast<unsigned char>(s[i])) || s[i]=='.')) ++i;
	mov	eax, 0	 # iftmp.112_109,
.L229:
 # D:/programs/partical_life/calcflow.cpp:178: 				while (i < s.size() && (std::isdigit(static_cast<unsigned char>(s[i])) || s[i]=='.')) ++i;
	test	al, al	 # iftmp.112_109
	jne	.L230	 #,
 # D:/programs/partical_life/calcflow.cpp:179: 				if (i < s.size() && s[i] == 'i') {
	mov	rax, QWORD PTR 696[rbp]	 # tmp232, this
	mov	rbx, QWORD PTR 32[rax]	 # _46, this_142(D)->i
 # D:/programs/partical_life/calcflow.cpp:179: 				if (i < s.size() && s[i] == 'i') {
	mov	rax, QWORD PTR 696[rbp]	 # _47, this
	mov	rcx, rax	 #, _47
	call	_ZNKSt7__cxx1112basic_stringIcSt11char_traitsIcESaIcEE4sizeEv	 #
 # D:/programs/partical_life/calcflow.cpp:179: 				if (i < s.size() && s[i] == 'i') {
	cmp	rbx, rax	 # _46, _48
	jnb	.L231	 #,
 # D:/programs/partical_life/calcflow.cpp:179: 				if (i < s.size() && s[i] == 'i') {
	mov	rax, QWORD PTR 696[rbp]	 # _49, this
 # D:/programs/partical_life/calcflow.cpp:179: 				if (i < s.size() && s[i] == 'i') {
	mov	rdx, QWORD PTR 696[rbp]	 # tmp233, this
	mov	rdx, QWORD PTR 32[rdx]	 # _50, this_142(D)->i
 # D:/programs/partical_life/calcflow.cpp:179: 				if (i < s.size() && s[i] == 'i') {
	mov	rcx, rax	 #, _49
	call	_ZNSt7__cxx1112basic_stringIcSt11char_traitsIcESaIcEEixEy	 #
 # D:/programs/partical_life/calcflow.cpp:179: 				if (i < s.size() && s[i] == 'i') {
	movzx	eax, BYTE PTR [rax]	 # _52, *_51
 # D:/programs/partical_life/calcflow.cpp:179: 				if (i < s.size() && s[i] == 'i') {
	cmp	al, 105	 # _52,
	jne	.L231	 #,
 # D:/programs/partical_life/calcflow.cpp:179: 				if (i < s.size() && s[i] == 'i') {
	mov	eax, 1	 # iftmp.114_110,
 # D:/programs/partical_life/calcflow.cpp:179: 				if (i < s.size() && s[i] == 'i') {
	jmp	.L232	 #
.L231:
 # D:/programs/partical_life/calcflow.cpp:179: 				if (i < s.size() && s[i] == 'i') {
	mov	eax, 0	 # iftmp.114_110,
.L232:
 # D:/programs/partical_life/calcflow.cpp:179: 				if (i < s.size() && s[i] == 'i') {
	test	al, al	 # iftmp.114_110
	je	.L233	 #,
 # D:/programs/partical_life/calcflow.cpp:180: 					++i;
	mov	rax, QWORD PTR 696[rbp]	 # tmp234, this
	mov	rax, QWORD PTR 32[rax]	 # _53, this_142(D)->i
 # D:/programs/partical_life/calcflow.cpp:180: 					++i;
	lea	rdx, 1[rax]	 # _54,
	mov	rax, QWORD PTR 696[rbp]	 # tmp235, this
	mov	QWORD PTR 32[rax], rdx	 # this_142(D)->i, _54
 # D:/programs/partical_life/calcflow.cpp:207: 	}
	pxor	xmm0, xmm0	 # tmp236
	movaps	XMMWORD PTR -96[rbp], xmm0	 # D.98172, tmp236
	movaps	XMMWORD PTR -80[rbp], xmm0	 # D.98172, tmp236
	movq	QWORD PTR -64[rbp], xmm0	 # D.98172, tmp236
	mov	DWORD PTR -96[rbp], 1	 # D.98172.type,
	mov	rdx, QWORD PTR 696[rbp]	 # _55, this
 # D:/programs/partical_life/calcflow.cpp:181: 					toks.push_back({Token::Type::Imag, s.substr(start, i - start - 1)});
	mov	rax, QWORD PTR 696[rbp]	 # tmp237, this
	mov	rax, QWORD PTR 32[rax]	 # _56, this_142(D)->i
 # D:/programs/partical_life/calcflow.cpp:181: 					toks.push_back({Token::Type::Imag, s.substr(start, i - start - 1)});
	sub	rax, QWORD PTR 632[rbp]	 # _57, start
 # D:/programs/partical_life/calcflow.cpp:207: 	}
	lea	r8, -1[rax]	 # _58,
	lea	rax, -88[rbp]	 # tmp238,
	mov	rcx, QWORD PTR 632[rbp]	 # tmp239, start
	mov	r9, r8	 #, _58
	mov	r8, rcx	 #, tmp239
	mov	rcx, rax	 #, tmp238
	call	_ZNKSt7__cxx1112basic_stringIcSt11char_traitsIcESaIcEE6substrEyy	 #
.LEHE21:
 # D:/programs/partical_life/calcflow.cpp:181: 					toks.push_back({Token::Type::Imag, s.substr(start, i - start - 1)});
	lea	rdx, -96[rbp]	 # tmp240,
	mov	rax, QWORD PTR 688[rbp]	 # tmp241, <retval>
	mov	rcx, rax	 #, tmp241
.LEHB22:
	call	_ZNSt6vectorI5TokenSaIS0_EE9push_backEOS0_	 #
.LEHE22:
 # D:/programs/partical_life/calcflow.cpp:181: 					toks.push_back({Token::Type::Imag, s.substr(start, i - start - 1)});
	lea	rax, -96[rbp]	 # tmp242,
	mov	rcx, rax	 #, tmp242
	call	_ZN5TokenD1Ev	 #
	jmp	.L220	 #
.L233:
 # D:/programs/partical_life/calcflow.cpp:207: 	}
	pxor	xmm0, xmm0	 # tmp243
	movaps	XMMWORD PTR -48[rbp], xmm0	 # D.98183, tmp243
	movaps	XMMWORD PTR -32[rbp], xmm0	 # D.98183, tmp243
	movq	QWORD PTR -16[rbp], xmm0	 # D.98183, tmp243
	mov	rdx, QWORD PTR 696[rbp]	 # _59, this
 # D:/programs/partical_life/calcflow.cpp:183: 					toks.push_back({Token::Type::Number, s.substr(start, i - start)});
	mov	rax, QWORD PTR 696[rbp]	 # tmp244, this
	mov	rax, QWORD PTR 32[rax]	 # _60, this_142(D)->i
 # D:/programs/partical_life/calcflow.cpp:207: 	}
	sub	rax, QWORD PTR 632[rbp]	 # _60, start
	mov	r8, rax	 # _61, _60
	lea	rax, -40[rbp]	 # tmp245,
	mov	rcx, QWORD PTR 632[rbp]	 # tmp246, start
	mov	r9, r8	 #, _61
	mov	r8, rcx	 #, tmp246
	mov	rcx, rax	 #, tmp245
.LEHB23:
	call	_ZNKSt7__cxx1112basic_stringIcSt11char_traitsIcESaIcEE6substrEyy	 #
.LEHE23:
 # D:/programs/partical_life/calcflow.cpp:183: 					toks.push_back({Token::Type::Number, s.substr(start, i - start)});
	lea	rdx, -48[rbp]	 # tmp247,
	mov	rax, QWORD PTR 688[rbp]	 # tmp248, <retval>
	mov	rcx, rax	 #, tmp248
.LEHB24:
	call	_ZNSt6vectorI5TokenSaIS0_EE9push_backEOS0_	 #
.LEHE24:
 # D:/programs/partical_life/calcflow.cpp:183: 					toks.push_back({Token::Type::Number, s.substr(start, i - start)});
	lea	rax, -48[rbp]	 # tmp249,
	mov	rcx, rax	 #, tmp249
	call	_ZN5TokenD1Ev	 #
 # D:/programs/partical_life/calcflow.cpp:185: 				continue;
	jmp	.L220	 #
.L225:
 # D:/programs/partical_life/calcflow.cpp:187: 			if (std::isalpha(static_cast<unsigned char>(ch)) || ch=='_') {
	movzx	eax, BYTE PTR 655[rbp]	 # ch.115_62, ch
 # D:/programs/partical_life/calcflow.cpp:187: 			if (std::isalpha(static_cast<unsigned char>(ch)) || ch=='_') {
	movzx	eax, al	 # _63, ch.115_62
	mov	ecx, eax	 #, _63
	mov	rax, QWORD PTR __imp_isalpha[rip]	 # tmp250,
	call	rax	 # tmp250
 # D:/programs/partical_life/calcflow.cpp:187: 			if (std::isalpha(static_cast<unsigned char>(ch)) || ch=='_') {
	test	eax, eax	 # _64
	jne	.L235	 #,
 # D:/programs/partical_life/calcflow.cpp:187: 			if (std::isalpha(static_cast<unsigned char>(ch)) || ch=='_') {
	cmp	BYTE PTR 655[rbp], 95	 # ch,
	jne	.L236	 #,
.L235:
 # D:/programs/partical_life/calcflow.cpp:188: 				size_t start = i; ++i;
	mov	rax, QWORD PTR 696[rbp]	 # tmp251, this
	mov	rax, QWORD PTR 32[rax]	 # tmp252, this_142(D)->i
	mov	QWORD PTR 640[rbp], rax	 # start, tmp252
 # D:/programs/partical_life/calcflow.cpp:188: 				size_t start = i; ++i;
	mov	rax, QWORD PTR 696[rbp]	 # tmp253, this
	mov	rax, QWORD PTR 32[rax]	 # _65, this_142(D)->i
 # D:/programs/partical_life/calcflow.cpp:188: 				size_t start = i; ++i;
	lea	rdx, 1[rax]	 # _66,
	mov	rax, QWORD PTR 696[rbp]	 # tmp254, this
	mov	QWORD PTR 32[rax], rdx	 # this_142(D)->i, _66
 # D:/programs/partical_life/calcflow.cpp:189: 				while (i < s.size() && (std::isalnum(static_cast<unsigned char>(s[i])) || s[i]=='_')) ++i;
	jmp	.L237	 #
.L241:
 # D:/programs/partical_life/calcflow.cpp:189: 				while (i < s.size() && (std::isalnum(static_cast<unsigned char>(s[i])) || s[i]=='_')) ++i;
	mov	rax, QWORD PTR 696[rbp]	 # tmp255, this
	mov	rax, QWORD PTR 32[rax]	 # _67, this_142(D)->i
 # D:/programs/partical_life/calcflow.cpp:189: 				while (i < s.size() && (std::isalnum(static_cast<unsigned char>(s[i])) || s[i]=='_')) ++i;
	lea	rdx, 1[rax]	 # _68,
	mov	rax, QWORD PTR 696[rbp]	 # tmp256, this
	mov	QWORD PTR 32[rax], rdx	 # this_142(D)->i, _68
.L237:
 # D:/programs/partical_life/calcflow.cpp:189: 				while (i < s.size() && (std::isalnum(static_cast<unsigned char>(s[i])) || s[i]=='_')) ++i;
	mov	rax, QWORD PTR 696[rbp]	 # tmp257, this
	mov	rbx, QWORD PTR 32[rax]	 # _69, this_142(D)->i
 # D:/programs/partical_life/calcflow.cpp:189: 				while (i < s.size() && (std::isalnum(static_cast<unsigned char>(s[i])) || s[i]=='_')) ++i;
	mov	rax, QWORD PTR 696[rbp]	 # _70, this
	mov	rcx, rax	 #, _70
	call	_ZNKSt7__cxx1112basic_stringIcSt11char_traitsIcESaIcEE4sizeEv	 #
 # D:/programs/partical_life/calcflow.cpp:189: 				while (i < s.size() && (std::isalnum(static_cast<unsigned char>(s[i])) || s[i]=='_')) ++i;
	cmp	rbx, rax	 # _69, _71
	jnb	.L238	 #,
 # D:/programs/partical_life/calcflow.cpp:189: 				while (i < s.size() && (std::isalnum(static_cast<unsigned char>(s[i])) || s[i]=='_')) ++i;
	mov	rax, QWORD PTR 696[rbp]	 # _72, this
 # D:/programs/partical_life/calcflow.cpp:189: 				while (i < s.size() && (std::isalnum(static_cast<unsigned char>(s[i])) || s[i]=='_')) ++i;
	mov	rdx, QWORD PTR 696[rbp]	 # tmp258, this
	mov	rdx, QWORD PTR 32[rdx]	 # _73, this_142(D)->i
 # D:/programs/partical_life/calcflow.cpp:189: 				while (i < s.size() && (std::isalnum(static_cast<unsigned char>(s[i])) || s[i]=='_')) ++i;
	mov	rcx, rax	 #, _72
.LEHB25:
	call	_ZNSt7__cxx1112basic_stringIcSt11char_traitsIcESaIcEEixEy	 #
 # D:/programs/partical_life/calcflow.cpp:189: 				while (i < s.size() && (std::isalnum(static_cast<unsigned char>(s[i])) || s[i]=='_')) ++i;
	movzx	eax, BYTE PTR [rax]	 # _75, *_74
 # D:/programs/partical_life/calcflow.cpp:189: 				while (i < s.size() && (std::isalnum(static_cast<unsigned char>(s[i])) || s[i]=='_')) ++i;
	movzx	eax, al	 # _77, _76
	mov	ecx, eax	 #, _77
	mov	rax, QWORD PTR __imp_isalnum[rip]	 # tmp259,
	call	rax	 # tmp259
 # D:/programs/partical_life/calcflow.cpp:189: 				while (i < s.size() && (std::isalnum(static_cast<unsigned char>(s[i])) || s[i]=='_')) ++i;
	test	eax, eax	 # _78
	jne	.L239	 #,
 # D:/programs/partical_life/calcflow.cpp:189: 				while (i < s.size() && (std::isalnum(static_cast<unsigned char>(s[i])) || s[i]=='_')) ++i;
	mov	rax, QWORD PTR 696[rbp]	 # _79, this
 # D:/programs/partical_life/calcflow.cpp:189: 				while (i < s.size() && (std::isalnum(static_cast<unsigned char>(s[i])) || s[i]=='_')) ++i;
	mov	rdx, QWORD PTR 696[rbp]	 # tmp260, this
	mov	rdx, QWORD PTR 32[rdx]	 # _80, this_142(D)->i
 # D:/programs/partical_life/calcflow.cpp:189: 				while (i < s.size() && (std::isalnum(static_cast<unsigned char>(s[i])) || s[i]=='_')) ++i;
	mov	rcx, rax	 #, _79
	call	_ZNSt7__cxx1112basic_stringIcSt11char_traitsIcESaIcEEixEy	 #
 # D:/programs/partical_life/calcflow.cpp:189: 				while (i < s.size() && (std::isalnum(static_cast<unsigned char>(s[i])) || s[i]=='_')) ++i;
	movzx	eax, BYTE PTR [rax]	 # _82, *_81
 # D:/programs/partical_life/calcflow.cpp:189: 				while (i < s.size() && (std::isalnum(static_cast<unsigned char>(s[i])) || s[i]=='_')) ++i;
	cmp	al, 95	 # _82,
	jne	.L238	 #,
.L239:
 # D:/programs/partical_life/calcflow.cpp:189: 				while (i < s.size() && (std::isalnum(static_cast<unsigned char>(s[i])) || s[i]=='_')) ++i;
	mov	eax, 1	 # iftmp.117_111,
 # D:/programs/partical_life/calcflow.cpp:189: 				while (i < s.size() && (std::isalnum(static_cast<unsigned char>(s[i])) || s[i]=='_')) ++i;
	jmp	.L240	 #
.L238:
 # D:/programs/partical_life/calcflow.cpp:189: 				while (i < s.size() && (std::isalnum(static_cast<unsigned char>(s[i])) || s[i]=='_')) ++i;
	mov	eax, 0	 # iftmp.117_111,
.L240:
 # D:/programs/partical_life/calcflow.cpp:189: 				while (i < s.size() && (std::isalnum(static_cast<unsigned char>(s[i])) || s[i]=='_')) ++i;
	test	al, al	 # iftmp.117_111
	jne	.L241	 #,
 # D:/programs/partical_life/calcflow.cpp:207: 	}
	pxor	xmm0, xmm0	 # tmp261
	movaps	XMMWORD PTR 0[rbp], xmm0	 # D.98186, tmp261
	movaps	XMMWORD PTR 16[rbp], xmm0	 # D.98186, tmp261
	movq	QWORD PTR 32[rbp], xmm0	 # D.98186, tmp261
	mov	DWORD PTR 0[rbp], 2	 # D.98186.type,
	mov	rdx, QWORD PTR 696[rbp]	 # _83, this
 # D:/programs/partical_life/calcflow.cpp:190: 				toks.push_back({Token::Type::Ident, s.substr(start, i - start)});
	mov	rax, QWORD PTR 696[rbp]	 # tmp262, this
	mov	rax, QWORD PTR 32[rax]	 # _84, this_142(D)->i
 # D:/programs/partical_life/calcflow.cpp:207: 	}
	sub	rax, QWORD PTR 640[rbp]	 # _84, start
	mov	r8, rax	 # _85, _84
	lea	rax, 8[rbp]	 # tmp263,
	mov	rcx, QWORD PTR 640[rbp]	 # tmp264, start
	mov	r9, r8	 #, _85
	mov	r8, rcx	 #, tmp264
	mov	rcx, rax	 #, tmp263
	call	_ZNKSt7__cxx1112basic_stringIcSt11char_traitsIcESaIcEE6substrEyy	 #
.LEHE25:
 # D:/programs/partical_life/calcflow.cpp:190: 				toks.push_back({Token::Type::Ident, s.substr(start, i - start)});
	mov	rdx, rbp	 # tmp265,
	mov	rax, QWORD PTR 688[rbp]	 # tmp266, <retval>
	mov	rcx, rax	 #, tmp266
.LEHB26:
	call	_ZNSt6vectorI5TokenSaIS0_EE9push_backEOS0_	 #
.LEHE26:
 # D:/programs/partical_life/calcflow.cpp:190: 				toks.push_back({Token::Type::Ident, s.substr(start, i - start)});
	mov	rax, rbp	 # tmp267,
	mov	rcx, rax	 #, tmp267
	call	_ZN5TokenD1Ev	 #
 # D:/programs/partical_life/calcflow.cpp:191: 				continue;
	jmp	.L220	 #
.L236:
 # D:/programs/partical_life/calcflow.cpp:193: 			switch (ch) {
	movsx	eax, BYTE PTR 655[rbp]	 # _86, ch
 # D:/programs/partical_life/calcflow.cpp:193: 			switch (ch) {
	cmp	eax, 94	 # _86,
	je	.L242	 #,
	cmp	eax, 94	 # _86,
	jg	.L243	 #,
	cmp	eax, 47	 # _86,
	je	.L244	 #,
	cmp	eax, 47	 # _86,
	jg	.L243	 #,
	cmp	eax, 45	 # _86,
	je	.L245	 #,
	cmp	eax, 45	 # _86,
	jg	.L243	 #,
	cmp	eax, 44	 # _86,
	je	.L246	 #,
	cmp	eax, 44	 # _86,
	jg	.L243	 #,
	cmp	eax, 43	 # _86,
	je	.L247	 #,
	cmp	eax, 43	 # _86,
	jg	.L243	 #,
	cmp	eax, 42	 # _86,
	je	.L248	 #,
	cmp	eax, 42	 # _86,
	jg	.L243	 #,
	cmp	eax, 40	 # _86,
	je	.L249	 #,
	cmp	eax, 41	 # _86,
	je	.L250	 #,
	jmp	.L243	 #
.L247:
 # D:/programs/partical_life/calcflow.cpp:194: 				case '+': ++i; toks.push_back({Token::Type::Plus, "+"}); break;
	mov	rax, QWORD PTR 696[rbp]	 # tmp268, this
	mov	rax, QWORD PTR 32[rax]	 # _87, this_142(D)->i
 # D:/programs/partical_life/calcflow.cpp:194: 				case '+': ++i; toks.push_back({Token::Type::Plus, "+"}); break;
	lea	rdx, 1[rax]	 # _88,
	mov	rax, QWORD PTR 696[rbp]	 # tmp269, this
	mov	QWORD PTR 32[rax], rdx	 # this_142(D)->i, _88
 # D:/programs/partical_life/calcflow.cpp:207: 	}
	pxor	xmm0, xmm0	 # tmp270
	movaps	XMMWORD PTR 48[rbp], xmm0	 # D.98190, tmp270
	movaps	XMMWORD PTR 64[rbp], xmm0	 # D.98190, tmp270
	movq	QWORD PTR 80[rbp], xmm0	 # D.98190, tmp270
	mov	DWORD PTR 48[rbp], 3	 # D.98190.type,
	lea	rax, 95[rbp]	 # tmp271,
	mov	QWORD PTR 624[rbp], rax	 # this, tmp271
 # D:/mingw/mingw64/include/c++/15.1.0/bits/new_allocator.h:88:       __new_allocator() _GLIBCXX_USE_NOEXCEPT { }
	nop	
 # D:/mingw/mingw64/include/c++/15.1.0/bits/allocator.h:168:       allocator() _GLIBCXX_NOTHROW { }
	nop	
 # D:/programs/partical_life/calcflow.cpp:207: 	}
	lea	rcx, 95[rbp]	 # tmp272,
	lea	rdx, .LC12[rip]	 # tmp273,
	lea	rax, 48[rbp]	 # tmp274,
	add	rax, 8	 # tmp275,
	mov	r8, rcx	 #, tmp272
	mov	rcx, rax	 #, tmp275
.LEHB27:
	call	_ZNSt7__cxx1112basic_stringIcSt11char_traitsIcESaIcEEC1IS3_EEPKcRKS3_	 #
.LEHE27:
 # D:/programs/partical_life/calcflow.cpp:194: 				case '+': ++i; toks.push_back({Token::Type::Plus, "+"}); break;
	lea	rdx, 48[rbp]	 # tmp276,
	mov	rax, QWORD PTR 688[rbp]	 # tmp277, <retval>
	mov	rcx, rax	 #, tmp277
.LEHB28:
	call	_ZNSt6vectorI5TokenSaIS0_EE9push_backEOS0_	 #
.LEHE28:
 # D:/programs/partical_life/calcflow.cpp:194: 				case '+': ++i; toks.push_back({Token::Type::Plus, "+"}); break;
	lea	rax, 48[rbp]	 # tmp278,
	mov	rcx, rax	 #, tmp278
	call	_ZN5TokenD1Ev	 #
 # D:/mingw/mingw64/include/c++/15.1.0/bits/allocator.h:189:       ~allocator() _GLIBCXX_NOTHROW { }
	lea	rax, 95[rbp]	 # tmp279,
	mov	rcx, rax	 #, tmp279
	call	_ZNSt15__new_allocatorIcED2Ev	 #
	nop	
 # D:/programs/partical_life/calcflow.cpp:194: 				case '+': ++i; toks.push_back({Token::Type::Plus, "+"}); break;
	jmp	.L220	 #
.L245:
 # D:/programs/partical_life/calcflow.cpp:195: 				case '-': ++i; toks.push_back({Token::Type::Minus, "-"}); break;
	mov	rax, QWORD PTR 696[rbp]	 # tmp280, this
	mov	rax, QWORD PTR 32[rax]	 # _89, this_142(D)->i
 # D:/programs/partical_life/calcflow.cpp:195: 				case '-': ++i; toks.push_back({Token::Type::Minus, "-"}); break;
	lea	rdx, 1[rax]	 # _90,
	mov	rax, QWORD PTR 696[rbp]	 # tmp281, this
	mov	QWORD PTR 32[rax], rdx	 # this_142(D)->i, _90
 # D:/programs/partical_life/calcflow.cpp:207: 	}
	pxor	xmm0, xmm0	 # tmp282
	movaps	XMMWORD PTR 96[rbp], xmm0	 # D.98194, tmp282
	movaps	XMMWORD PTR 112[rbp], xmm0	 # D.98194, tmp282
	movq	QWORD PTR 128[rbp], xmm0	 # D.98194, tmp282
	mov	DWORD PTR 96[rbp], 4	 # D.98194.type,
	lea	rax, 143[rbp]	 # tmp283,
	mov	QWORD PTR 616[rbp], rax	 # this, tmp283
 # D:/mingw/mingw64/include/c++/15.1.0/bits/new_allocator.h:88:       __new_allocator() _GLIBCXX_USE_NOEXCEPT { }
	nop	
 # D:/mingw/mingw64/include/c++/15.1.0/bits/allocator.h:168:       allocator() _GLIBCXX_NOTHROW { }
	nop	
 # D:/programs/partical_life/calcflow.cpp:207: 	}
	lea	rcx, 143[rbp]	 # tmp284,
	lea	rdx, .LC13[rip]	 # tmp285,
	lea	rax, 96[rbp]	 # tmp286,
	add	rax, 8	 # tmp287,
	mov	r8, rcx	 #, tmp284
	mov	rcx, rax	 #, tmp287
.LEHB29:
	call	_ZNSt7__cxx1112basic_stringIcSt11char_traitsIcESaIcEEC1IS3_EEPKcRKS3_	 #
.LEHE29:
 # D:/programs/partical_life/calcflow.cpp:195: 				case '-': ++i; toks.push_back({Token::Type::Minus, "-"}); break;
	lea	rdx, 96[rbp]	 # tmp288,
	mov	rax, QWORD PTR 688[rbp]	 # tmp289, <retval>
	mov	rcx, rax	 #, tmp289
.LEHB30:
	call	_ZNSt6vectorI5TokenSaIS0_EE9push_backEOS0_	 #
.LEHE30:
 # D:/programs/partical_life/calcflow.cpp:195: 				case '-': ++i; toks.push_back({Token::Type::Minus, "-"}); break;
	lea	rax, 96[rbp]	 # tmp290,
	mov	rcx, rax	 #, tmp290
	call	_ZN5TokenD1Ev	 #
 # D:/mingw/mingw64/include/c++/15.1.0/bits/allocator.h:189:       ~allocator() _GLIBCXX_NOTHROW { }
	lea	rax, 143[rbp]	 # tmp291,
	mov	rcx, rax	 #, tmp291
	call	_ZNSt15__new_allocatorIcED2Ev	 #
	nop	
 # D:/programs/partical_life/calcflow.cpp:195: 				case '-': ++i; toks.push_back({Token::Type::Minus, "-"}); break;
	jmp	.L220	 #
.L248:
 # D:/programs/partical_life/calcflow.cpp:196: 				case '*': ++i; toks.push_back({Token::Type::Star,  "*"}); break;
	mov	rax, QWORD PTR 696[rbp]	 # tmp292, this
	mov	rax, QWORD PTR 32[rax]	 # _91, this_142(D)->i
 # D:/programs/partical_life/calcflow.cpp:196: 				case '*': ++i; toks.push_back({Token::Type::Star,  "*"}); break;
	lea	rdx, 1[rax]	 # _92,
	mov	rax, QWORD PTR 696[rbp]	 # tmp293, this
	mov	QWORD PTR 32[rax], rdx	 # this_142(D)->i, _92
 # D:/programs/partical_life/calcflow.cpp:207: 	}
	pxor	xmm0, xmm0	 # tmp294
	movaps	XMMWORD PTR 144[rbp], xmm0	 # D.98198, tmp294
	movaps	XMMWORD PTR 160[rbp], xmm0	 # D.98198, tmp294
	movq	QWORD PTR 176[rbp], xmm0	 # D.98198, tmp294
	mov	DWORD PTR 144[rbp], 5	 # D.98198.type,
	lea	rax, 191[rbp]	 # tmp295,
	mov	QWORD PTR 608[rbp], rax	 # this, tmp295
 # D:/mingw/mingw64/include/c++/15.1.0/bits/new_allocator.h:88:       __new_allocator() _GLIBCXX_USE_NOEXCEPT { }
	nop	
 # D:/mingw/mingw64/include/c++/15.1.0/bits/allocator.h:168:       allocator() _GLIBCXX_NOTHROW { }
	nop	
 # D:/programs/partical_life/calcflow.cpp:207: 	}
	lea	rcx, 191[rbp]	 # tmp296,
	lea	rdx, .LC14[rip]	 # tmp297,
	lea	rax, 144[rbp]	 # tmp298,
	add	rax, 8	 # tmp299,
	mov	r8, rcx	 #, tmp296
	mov	rcx, rax	 #, tmp299
.LEHB31:
	call	_ZNSt7__cxx1112basic_stringIcSt11char_traitsIcESaIcEEC1IS3_EEPKcRKS3_	 #
.LEHE31:
 # D:/programs/partical_life/calcflow.cpp:196: 				case '*': ++i; toks.push_back({Token::Type::Star,  "*"}); break;
	lea	rdx, 144[rbp]	 # tmp300,
	mov	rax, QWORD PTR 688[rbp]	 # tmp301, <retval>
	mov	rcx, rax	 #, tmp301
.LEHB32:
	call	_ZNSt6vectorI5TokenSaIS0_EE9push_backEOS0_	 #
.LEHE32:
 # D:/programs/partical_life/calcflow.cpp:196: 				case '*': ++i; toks.push_back({Token::Type::Star,  "*"}); break;
	lea	rax, 144[rbp]	 # tmp302,
	mov	rcx, rax	 #, tmp302
	call	_ZN5TokenD1Ev	 #
 # D:/mingw/mingw64/include/c++/15.1.0/bits/allocator.h:189:       ~allocator() _GLIBCXX_NOTHROW { }
	lea	rax, 191[rbp]	 # tmp303,
	mov	rcx, rax	 #, tmp303
	call	_ZNSt15__new_allocatorIcED2Ev	 #
	nop	
 # D:/programs/partical_life/calcflow.cpp:196: 				case '*': ++i; toks.push_back({Token::Type::Star,  "*"}); break;
	jmp	.L220	 #
.L244:
 # D:/programs/partical_life/calcflow.cpp:197: 				case '/': ++i; toks.push_back({Token::Type::Slash, "/"}); break;
	mov	rax, QWORD PTR 696[rbp]	 # tmp304, this
	mov	rax, QWORD PTR 32[rax]	 # _93, this_142(D)->i
 # D:/programs/partical_life/calcflow.cpp:197: 				case '/': ++i; toks.push_back({Token::Type::Slash, "/"}); break;
	lea	rdx, 1[rax]	 # _94,
	mov	rax, QWORD PTR 696[rbp]	 # tmp305, this
	mov	QWORD PTR 32[rax], rdx	 # this_142(D)->i, _94
 # D:/programs/partical_life/calcflow.cpp:207: 	}
	pxor	xmm0, xmm0	 # tmp306
	movaps	XMMWORD PTR 192[rbp], xmm0	 # D.98202, tmp306
	movaps	XMMWORD PTR 208[rbp], xmm0	 # D.98202, tmp306
	movq	QWORD PTR 224[rbp], xmm0	 # D.98202, tmp306
	mov	DWORD PTR 192[rbp], 6	 # D.98202.type,
	lea	rax, 239[rbp]	 # tmp307,
	mov	QWORD PTR 600[rbp], rax	 # this, tmp307
 # D:/mingw/mingw64/include/c++/15.1.0/bits/new_allocator.h:88:       __new_allocator() _GLIBCXX_USE_NOEXCEPT { }
	nop	
 # D:/mingw/mingw64/include/c++/15.1.0/bits/allocator.h:168:       allocator() _GLIBCXX_NOTHROW { }
	nop	
 # D:/programs/partical_life/calcflow.cpp:207: 	}
	lea	rcx, 239[rbp]	 # tmp308,
	lea	rdx, .LC15[rip]	 # tmp309,
	lea	rax, 192[rbp]	 # tmp310,
	add	rax, 8	 # tmp311,
	mov	r8, rcx	 #, tmp308
	mov	rcx, rax	 #, tmp311
.LEHB33:
	call	_ZNSt7__cxx1112basic_stringIcSt11char_traitsIcESaIcEEC1IS3_EEPKcRKS3_	 #
.LEHE33:
 # D:/programs/partical_life/calcflow.cpp:197: 				case '/': ++i; toks.push_back({Token::Type::Slash, "/"}); break;
	lea	rdx, 192[rbp]	 # tmp312,
	mov	rax, QWORD PTR 688[rbp]	 # tmp313, <retval>
	mov	rcx, rax	 #, tmp313
.LEHB34:
	call	_ZNSt6vectorI5TokenSaIS0_EE9push_backEOS0_	 #
.LEHE34:
 # D:/programs/partical_life/calcflow.cpp:197: 				case '/': ++i; toks.push_back({Token::Type::Slash, "/"}); break;
	lea	rax, 192[rbp]	 # tmp314,
	mov	rcx, rax	 #, tmp314
	call	_ZN5TokenD1Ev	 #
 # D:/mingw/mingw64/include/c++/15.1.0/bits/allocator.h:189:       ~allocator() _GLIBCXX_NOTHROW { }
	lea	rax, 239[rbp]	 # tmp315,
	mov	rcx, rax	 #, tmp315
	call	_ZNSt15__new_allocatorIcED2Ev	 #
	nop	
 # D:/programs/partical_life/calcflow.cpp:197: 				case '/': ++i; toks.push_back({Token::Type::Slash, "/"}); break;
	jmp	.L220	 #
.L242:
 # D:/programs/partical_life/calcflow.cpp:198: 				case '^': ++i; toks.push_back({Token::Type::Caret, "^"}); break;
	mov	rax, QWORD PTR 696[rbp]	 # tmp316, this
	mov	rax, QWORD PTR 32[rax]	 # _95, this_142(D)->i
 # D:/programs/partical_life/calcflow.cpp:198: 				case '^': ++i; toks.push_back({Token::Type::Caret, "^"}); break;
	lea	rdx, 1[rax]	 # _96,
	mov	rax, QWORD PTR 696[rbp]	 # tmp317, this
	mov	QWORD PTR 32[rax], rdx	 # this_142(D)->i, _96
 # D:/programs/partical_life/calcflow.cpp:207: 	}
	pxor	xmm0, xmm0	 # tmp318
	movaps	XMMWORD PTR 240[rbp], xmm0	 # D.98206, tmp318
	movaps	XMMWORD PTR 256[rbp], xmm0	 # D.98206, tmp318
	movq	QWORD PTR 272[rbp], xmm0	 # D.98206, tmp318
	mov	DWORD PTR 240[rbp], 7	 # D.98206.type,
	lea	rax, 287[rbp]	 # tmp319,
	mov	QWORD PTR 592[rbp], rax	 # this, tmp319
 # D:/mingw/mingw64/include/c++/15.1.0/bits/new_allocator.h:88:       __new_allocator() _GLIBCXX_USE_NOEXCEPT { }
	nop	
 # D:/mingw/mingw64/include/c++/15.1.0/bits/allocator.h:168:       allocator() _GLIBCXX_NOTHROW { }
	nop	
 # D:/programs/partical_life/calcflow.cpp:207: 	}
	lea	rcx, 287[rbp]	 # tmp320,
	lea	rdx, .LC16[rip]	 # tmp321,
	lea	rax, 240[rbp]	 # tmp322,
	add	rax, 8	 # tmp323,
	mov	r8, rcx	 #, tmp320
	mov	rcx, rax	 #, tmp323
.LEHB35:
	call	_ZNSt7__cxx1112basic_stringIcSt11char_traitsIcESaIcEEC1IS3_EEPKcRKS3_	 #
.LEHE35:
 # D:/programs/partical_life/calcflow.cpp:198: 				case '^': ++i; toks.push_back({Token::Type::Caret, "^"}); break;
	lea	rdx, 240[rbp]	 # tmp324,
	mov	rax, QWORD PTR 688[rbp]	 # tmp325, <retval>
	mov	rcx, rax	 #, tmp325
.LEHB36:
	call	_ZNSt6vectorI5TokenSaIS0_EE9push_backEOS0_	 #
.LEHE36:
 # D:/programs/partical_life/calcflow.cpp:198: 				case '^': ++i; toks.push_back({Token::Type::Caret, "^"}); break;
	lea	rax, 240[rbp]	 # tmp326,
	mov	rcx, rax	 #, tmp326
	call	_ZN5TokenD1Ev	 #
 # D:/mingw/mingw64/include/c++/15.1.0/bits/allocator.h:189:       ~allocator() _GLIBCXX_NOTHROW { }
	lea	rax, 287[rbp]	 # tmp327,
	mov	rcx, rax	 #, tmp327
	call	_ZNSt15__new_allocatorIcED2Ev	 #
	nop	
 # D:/programs/partical_life/calcflow.cpp:198: 				case '^': ++i; toks.push_back({Token::Type::Caret, "^"}); break;
	jmp	.L220	 #
.L249:
 # D:/programs/partical_life/calcflow.cpp:199: 				case '(': ++i; toks.push_back({Token::Type::LParen,"("}); break;
	mov	rax, QWORD PTR 696[rbp]	 # tmp328, this
	mov	rax, QWORD PTR 32[rax]	 # _97, this_142(D)->i
 # D:/programs/partical_life/calcflow.cpp:199: 				case '(': ++i; toks.push_back({Token::Type::LParen,"("}); break;
	lea	rdx, 1[rax]	 # _98,
	mov	rax, QWORD PTR 696[rbp]	 # tmp329, this
	mov	QWORD PTR 32[rax], rdx	 # this_142(D)->i, _98
 # D:/programs/partical_life/calcflow.cpp:207: 	}
	pxor	xmm0, xmm0	 # tmp330
	movaps	XMMWORD PTR 288[rbp], xmm0	 # D.98210, tmp330
	movaps	XMMWORD PTR 304[rbp], xmm0	 # D.98210, tmp330
	movq	QWORD PTR 320[rbp], xmm0	 # D.98210, tmp330
	mov	DWORD PTR 288[rbp], 8	 # D.98210.type,
	lea	rax, 335[rbp]	 # tmp331,
	mov	QWORD PTR 584[rbp], rax	 # this, tmp331
 # D:/mingw/mingw64/include/c++/15.1.0/bits/new_allocator.h:88:       __new_allocator() _GLIBCXX_USE_NOEXCEPT { }
	nop	
 # D:/mingw/mingw64/include/c++/15.1.0/bits/allocator.h:168:       allocator() _GLIBCXX_NOTHROW { }
	nop	
 # D:/programs/partical_life/calcflow.cpp:207: 	}
	lea	rcx, 335[rbp]	 # tmp332,
	lea	rdx, .LC17[rip]	 # tmp333,
	lea	rax, 288[rbp]	 # tmp334,
	add	rax, 8	 # tmp335,
	mov	r8, rcx	 #, tmp332
	mov	rcx, rax	 #, tmp335
.LEHB37:
	call	_ZNSt7__cxx1112basic_stringIcSt11char_traitsIcESaIcEEC1IS3_EEPKcRKS3_	 #
.LEHE37:
 # D:/programs/partical_life/calcflow.cpp:199: 				case '(': ++i; toks.push_back({Token::Type::LParen,"("}); break;
	lea	rdx, 288[rbp]	 # tmp336,
	mov	rax, QWORD PTR 688[rbp]	 # tmp337, <retval>
	mov	rcx, rax	 #, tmp337
.LEHB38:
	call	_ZNSt6vectorI5TokenSaIS0_EE9push_backEOS0_	 #
.LEHE38:
 # D:/programs/partical_life/calcflow.cpp:199: 				case '(': ++i; toks.push_back({Token::Type::LParen,"("}); break;
	lea	rax, 288[rbp]	 # tmp338,
	mov	rcx, rax	 #, tmp338
	call	_ZN5TokenD1Ev	 #
 # D:/mingw/mingw64/include/c++/15.1.0/bits/allocator.h:189:       ~allocator() _GLIBCXX_NOTHROW { }
	lea	rax, 335[rbp]	 # tmp339,
	mov	rcx, rax	 #, tmp339
	call	_ZNSt15__new_allocatorIcED2Ev	 #
	nop	
 # D:/programs/partical_life/calcflow.cpp:199: 				case '(': ++i; toks.push_back({Token::Type::LParen,"("}); break;
	jmp	.L220	 #
.L250:
 # D:/programs/partical_life/calcflow.cpp:200: 				case ')': ++i; toks.push_back({Token::Type::RParen,")"}); break;
	mov	rax, QWORD PTR 696[rbp]	 # tmp340, this
	mov	rax, QWORD PTR 32[rax]	 # _99, this_142(D)->i
 # D:/programs/partical_life/calcflow.cpp:200: 				case ')': ++i; toks.push_back({Token::Type::RParen,")"}); break;
	lea	rdx, 1[rax]	 # _100,
	mov	rax, QWORD PTR 696[rbp]	 # tmp341, this
	mov	QWORD PTR 32[rax], rdx	 # this_142(D)->i, _100
 # D:/programs/partical_life/calcflow.cpp:207: 	}
	pxor	xmm0, xmm0	 # tmp342
	movaps	XMMWORD PTR 336[rbp], xmm0	 # D.98214, tmp342
	movaps	XMMWORD PTR 352[rbp], xmm0	 # D.98214, tmp342
	movq	QWORD PTR 368[rbp], xmm0	 # D.98214, tmp342
	mov	DWORD PTR 336[rbp], 9	 # D.98214.type,
	lea	rax, 383[rbp]	 # tmp343,
	mov	QWORD PTR 576[rbp], rax	 # this, tmp343
 # D:/mingw/mingw64/include/c++/15.1.0/bits/new_allocator.h:88:       __new_allocator() _GLIBCXX_USE_NOEXCEPT { }
	nop	
 # D:/mingw/mingw64/include/c++/15.1.0/bits/allocator.h:168:       allocator() _GLIBCXX_NOTHROW { }
	nop	
 # D:/programs/partical_life/calcflow.cpp:207: 	}
	lea	rcx, 383[rbp]	 # tmp344,
	lea	rdx, .LC18[rip]	 # tmp345,
	lea	rax, 336[rbp]	 # tmp346,
	add	rax, 8	 # tmp347,
	mov	r8, rcx	 #, tmp344
	mov	rcx, rax	 #, tmp347
.LEHB39:
	call	_ZNSt7__cxx1112basic_stringIcSt11char_traitsIcESaIcEEC1IS3_EEPKcRKS3_	 #
.LEHE39:
 # D:/programs/partical_life/calcflow.cpp:200: 				case ')': ++i; toks.push_back({Token::Type::RParen,")"}); break;
	lea	rdx, 336[rbp]	 # tmp348,
	mov	rax, QWORD PTR 688[rbp]	 # tmp349, <retval>
	mov	rcx, rax	 #, tmp349
.LEHB40:
	call	_ZNSt6vectorI5TokenSaIS0_EE9push_backEOS0_	 #
.LEHE40:
 # D:/programs/partical_life/calcflow.cpp:200: 				case ')': ++i; toks.push_back({Token::Type::RParen,")"}); break;
	lea	rax, 336[rbp]	 # tmp350,
	mov	rcx, rax	 #, tmp350
	call	_ZN5TokenD1Ev	 #
 # D:/mingw/mingw64/include/c++/15.1.0/bits/allocator.h:189:       ~allocator() _GLIBCXX_NOTHROW { }
	lea	rax, 383[rbp]	 # tmp351,
	mov	rcx, rax	 #, tmp351
	call	_ZNSt15__new_allocatorIcED2Ev	 #
	nop	
 # D:/programs/partical_life/calcflow.cpp:200: 				case ')': ++i; toks.push_back({Token::Type::RParen,")"}); break;
	jmp	.L220	 #
.L246:
 # D:/programs/partical_life/calcflow.cpp:201: 				case ',': ++i; toks.push_back({Token::Type::Comma, ","}); break;
	mov	rax, QWORD PTR 696[rbp]	 # tmp352, this
	mov	rax, QWORD PTR 32[rax]	 # _101, this_142(D)->i
 # D:/programs/partical_life/calcflow.cpp:201: 				case ',': ++i; toks.push_back({Token::Type::Comma, ","}); break;
	lea	rdx, 1[rax]	 # _102,
	mov	rax, QWORD PTR 696[rbp]	 # tmp353, this
	mov	QWORD PTR 32[rax], rdx	 # this_142(D)->i, _102
 # D:/programs/partical_life/calcflow.cpp:207: 	}
	pxor	xmm0, xmm0	 # tmp354
	movaps	XMMWORD PTR 384[rbp], xmm0	 # D.98218, tmp354
	movaps	XMMWORD PTR 400[rbp], xmm0	 # D.98218, tmp354
	movq	QWORD PTR 416[rbp], xmm0	 # D.98218, tmp354
	mov	DWORD PTR 384[rbp], 10	 # D.98218.type,
	lea	rax, 431[rbp]	 # tmp355,
	mov	QWORD PTR 568[rbp], rax	 # this, tmp355
 # D:/mingw/mingw64/include/c++/15.1.0/bits/new_allocator.h:88:       __new_allocator() _GLIBCXX_USE_NOEXCEPT { }
	nop	
 # D:/mingw/mingw64/include/c++/15.1.0/bits/allocator.h:168:       allocator() _GLIBCXX_NOTHROW { }
	nop	
 # D:/programs/partical_life/calcflow.cpp:207: 	}
	lea	rcx, 431[rbp]	 # tmp356,
	lea	rdx, .LC19[rip]	 # tmp357,
	lea	rax, 384[rbp]	 # tmp358,
	add	rax, 8	 # tmp359,
	mov	r8, rcx	 #, tmp356
	mov	rcx, rax	 #, tmp359
.LEHB41:
	call	_ZNSt7__cxx1112basic_stringIcSt11char_traitsIcESaIcEEC1IS3_EEPKcRKS3_	 #
.LEHE41:
 # D:/programs/partical_life/calcflow.cpp:201: 				case ',': ++i; toks.push_back({Token::Type::Comma, ","}); break;
	lea	rdx, 384[rbp]	 # tmp360,
	mov	rax, QWORD PTR 688[rbp]	 # tmp361, <retval>
	mov	rcx, rax	 #, tmp361
.LEHB42:
	call	_ZNSt6vectorI5TokenSaIS0_EE9push_backEOS0_	 #
.LEHE42:
 # D:/programs/partical_life/calcflow.cpp:201: 				case ',': ++i; toks.push_back({Token::Type::Comma, ","}); break;
	lea	rax, 384[rbp]	 # tmp362,
	mov	rcx, rax	 #, tmp362
	call	_ZN5TokenD1Ev	 #
 # D:/mingw/mingw64/include/c++/15.1.0/bits/allocator.h:189:       ~allocator() _GLIBCXX_NOTHROW { }
	lea	rax, 431[rbp]	 # tmp363,
	mov	rcx, rax	 #, tmp363
	call	_ZNSt15__new_allocatorIcED2Ev	 #
	nop	
 # D:/programs/partical_life/calcflow.cpp:201: 				case ',': ++i; toks.push_back({Token::Type::Comma, ","}); break;
	jmp	.L220	 #
.L243:
 # D:/programs/partical_life/calcflow.cpp:202: 				default: throw std::runtime_error(std::string(": ") + ch);
	mov	ecx, 16	 #,
	call	__cxa_allocate_exception	 #
	mov	rbx, rax	 # _103, tmp364
 # D:/programs/partical_life/calcflow.cpp:202: 				default: throw std::runtime_error(std::string(": ") + ch);
	movsx	esi, BYTE PTR 655[rbp]	 # _104, ch
	lea	rax, 511[rbp]	 # tmp365,
	mov	QWORD PTR 560[rbp], rax	 # this, tmp365
 # D:/mingw/mingw64/include/c++/15.1.0/bits/new_allocator.h:88:       __new_allocator() _GLIBCXX_USE_NOEXCEPT { }
	nop	
 # D:/mingw/mingw64/include/c++/15.1.0/bits/allocator.h:168:       allocator() _GLIBCXX_NOTHROW { }
	nop	
 # D:/programs/partical_life/calcflow.cpp:202: 				default: throw std::runtime_error(std::string(": ") + ch);
	lea	rcx, 511[rbp]	 # tmp366,
	lea	rdx, .LC20[rip]	 # tmp367,
	lea	rax, 464[rbp]	 # tmp368,
	mov	r8, rcx	 #, tmp366
	mov	rcx, rax	 #, tmp368
.LEHB43:
	call	_ZNSt7__cxx1112basic_stringIcSt11char_traitsIcESaIcEEC1IS3_EEPKcRKS3_	 #
.LEHE43:
 # D:/programs/partical_life/calcflow.cpp:202: 				default: throw std::runtime_error(std::string(": ") + ch);
	lea	rax, 432[rbp]	 # tmp369,
	lea	rdx, 464[rbp]	 # tmp370,
	mov	r8d, esi	 #, _104
	mov	rcx, rax	 #, tmp369
.LEHB44:
	call	_ZStplIcSt11char_traitsIcESaIcEENSt7__cxx1112basic_stringIT_T0_T1_EEOS8_S5_	 #
.LEHE44:
 # D:/programs/partical_life/calcflow.cpp:202: 				default: throw std::runtime_error(std::string(": ") + ch);
	lea	rax, 432[rbp]	 # tmp371,
	mov	rdx, rax	 #, tmp371
	mov	rcx, rbx	 #, _103
.LEHB45:
	call	_ZNSt13runtime_errorC1ERKNSt7__cxx1112basic_stringIcSt11char_traitsIcESaIcEEE	 #
.LEHE45:
 # D:/programs/partical_life/calcflow.cpp:202: 				default: throw std::runtime_error(std::string(": ") + ch);
	lea	rax, 432[rbp]	 # tmp372,
	mov	rcx, rax	 #, tmp372
	call	_ZNSt7__cxx1112basic_stringIcSt11char_traitsIcESaIcEED1Ev	 #
 # D:/programs/partical_life/calcflow.cpp:202: 				default: throw std::runtime_error(std::string(": ") + ch);
	lea	rax, 464[rbp]	 # tmp373,
	mov	rcx, rax	 #, tmp373
	call	_ZNSt7__cxx1112basic_stringIcSt11char_traitsIcESaIcEED1Ev	 #
 # D:/mingw/mingw64/include/c++/15.1.0/bits/allocator.h:189:       ~allocator() _GLIBCXX_NOTHROW { }
	lea	rax, 511[rbp]	 # tmp374,
	mov	rcx, rax	 #, tmp374
	call	_ZNSt15__new_allocatorIcED2Ev	 #
	nop	
 # D:/programs/partical_life/calcflow.cpp:202: 				default: throw std::runtime_error(std::string(": ") + ch);
	mov	rdx, QWORD PTR .refptr._ZNSt13runtime_errorD1Ev[rip]	 # tmp375,
	lea	rax, _ZTISt13runtime_error[rip]	 # tmp376,
	mov	r8, rdx	 #, tmp375
	mov	rdx, rax	 #, tmp376
	mov	rcx, rbx	 #, _103
.LEHB46:
	call	__cxa_throw	 #
.LEHE46:
.L220:
 # D:/programs/partical_life/calcflow.cpp:173: 		while (i < s.size()) {
	mov	rax, QWORD PTR 696[rbp]	 # tmp377, this
	mov	rbx, QWORD PTR 32[rax]	 # _105, this_142(D)->i
 # D:/programs/partical_life/calcflow.cpp:173: 		while (i < s.size()) {
	mov	rax, QWORD PTR 696[rbp]	 # _106, this
	mov	rcx, rax	 #, _106
	call	_ZNKSt7__cxx1112basic_stringIcSt11char_traitsIcESaIcEE4sizeEv	 #
 # D:/programs/partical_life/calcflow.cpp:173: 		while (i < s.size()) {
	cmp	rbx, rax	 # _105, _107
	setb	al	 #, retval.118_150
	test	al, al	 # retval.118_150
	jne	.L251	 #,
 # D:/programs/partical_life/calcflow.cpp:207: 	}
	pxor	xmm0, xmm0	 # tmp378
	movaps	XMMWORD PTR 512[rbp], xmm0	 # D.98264, tmp378
	movaps	XMMWORD PTR 528[rbp], xmm0	 # D.98264, tmp378
	movq	QWORD PTR 544[rbp], xmm0	 # D.98264, tmp378
	mov	DWORD PTR 512[rbp], 11	 # D.98264.type,
	lea	rax, 512[rbp]	 # tmp379,
	add	rax, 8	 # tmp380,
	mov	rcx, rax	 #, tmp380
	call	_ZNSt7__cxx1112basic_stringIcSt11char_traitsIcESaIcEEC1Ev	 #
 # D:/programs/partical_life/calcflow.cpp:205: 		toks.push_back({Token::Type::Eof, {}});
	lea	rdx, 512[rbp]	 # tmp381,
	mov	rax, QWORD PTR 688[rbp]	 # tmp382, <retval>
	mov	rcx, rax	 #, tmp382
.LEHB47:
	call	_ZNSt6vectorI5TokenSaIS0_EE9push_backEOS0_	 #
.LEHE47:
 # D:/programs/partical_life/calcflow.cpp:205: 		toks.push_back({Token::Type::Eof, {}});
	lea	rax, 512[rbp]	 # tmp383,
	mov	rcx, rax	 #, tmp383
	call	_ZN5TokenD1Ev	 #
 # D:/programs/partical_life/calcflow.cpp:206: 		return toks;
	jmp	.L301	 #
.L278:
 # D:/programs/partical_life/calcflow.cpp:181: 					toks.push_back({Token::Type::Imag, s.substr(start, i - start - 1)});
	mov	rbx, rax	 # tmp386,
	lea	rax, -96[rbp]	 # tmp384,
	mov	rcx, rax	 #, tmp384
	call	_ZN5TokenD1Ev	 #
	jmp	.L254	 #
.L279:
 # D:/programs/partical_life/calcflow.cpp:183: 					toks.push_back({Token::Type::Number, s.substr(start, i - start)});
	mov	rbx, rax	 # tmp390,
	lea	rax, -48[rbp]	 # tmp389,
	mov	rcx, rax	 #, tmp389
	call	_ZN5TokenD1Ev	 #
	jmp	.L254	 #
.L280:
 # D:/programs/partical_life/calcflow.cpp:190: 				toks.push_back({Token::Type::Ident, s.substr(start, i - start)});
	mov	rbx, rax	 # tmp393,
	mov	rax, rbp	 # tmp392,
	mov	rcx, rax	 #, tmp392
	call	_ZN5TokenD1Ev	 #
	jmp	.L254	 #
.L282:
 # D:/programs/partical_life/calcflow.cpp:194: 				case '+': ++i; toks.push_back({Token::Type::Plus, "+"}); break;
	mov	rbx, rax	 # tmp397,
	lea	rax, 48[rbp]	 # tmp395,
	mov	rcx, rax	 #, tmp395
	call	_ZN5TokenD1Ev	 #
	jmp	.L258	 #
.L281:
 # D:/mingw/mingw64/include/c++/15.1.0/bits/allocator.h:189:       ~allocator() _GLIBCXX_NOTHROW { }
	mov	rbx, rax	 # tmp396,
.L258:
	lea	rax, 95[rbp]	 # tmp400,
	mov	rcx, rax	 #, tmp400
	call	_ZNSt15__new_allocatorIcED2Ev	 #
	nop	
	jmp	.L254	 #
.L284:
 # D:/programs/partical_life/calcflow.cpp:195: 				case '-': ++i; toks.push_back({Token::Type::Minus, "-"}); break;
	mov	rbx, rax	 # tmp403,
	lea	rax, 96[rbp]	 # tmp401,
	mov	rcx, rax	 #, tmp401
	call	_ZN5TokenD1Ev	 #
	jmp	.L260	 #
.L283:
 # D:/mingw/mingw64/include/c++/15.1.0/bits/allocator.h:189:       ~allocator() _GLIBCXX_NOTHROW { }
	mov	rbx, rax	 # tmp402,
.L260:
	lea	rax, 143[rbp]	 # tmp406,
	mov	rcx, rax	 #, tmp406
	call	_ZNSt15__new_allocatorIcED2Ev	 #
	nop	
	jmp	.L254	 #
.L286:
 # D:/programs/partical_life/calcflow.cpp:196: 				case '*': ++i; toks.push_back({Token::Type::Star,  "*"}); break;
	mov	rbx, rax	 # tmp409,
	lea	rax, 144[rbp]	 # tmp407,
	mov	rcx, rax	 #, tmp407
	call	_ZN5TokenD1Ev	 #
	jmp	.L262	 #
.L285:
 # D:/mingw/mingw64/include/c++/15.1.0/bits/allocator.h:189:       ~allocator() _GLIBCXX_NOTHROW { }
	mov	rbx, rax	 # tmp408,
.L262:
	lea	rax, 191[rbp]	 # tmp412,
	mov	rcx, rax	 #, tmp412
	call	_ZNSt15__new_allocatorIcED2Ev	 #
	nop	
	jmp	.L254	 #
.L288:
 # D:/programs/partical_life/calcflow.cpp:197: 				case '/': ++i; toks.push_back({Token::Type::Slash, "/"}); break;
	mov	rbx, rax	 # tmp415,
	lea	rax, 192[rbp]	 # tmp413,
	mov	rcx, rax	 #, tmp413
	call	_ZN5TokenD1Ev	 #
	jmp	.L264	 #
.L287:
 # D:/mingw/mingw64/include/c++/15.1.0/bits/allocator.h:189:       ~allocator() _GLIBCXX_NOTHROW { }
	mov	rbx, rax	 # tmp414,
.L264:
	lea	rax, 239[rbp]	 # tmp418,
	mov	rcx, rax	 #, tmp418
	call	_ZNSt15__new_allocatorIcED2Ev	 #
	nop	
	jmp	.L254	 #
.L290:
 # D:/programs/partical_life/calcflow.cpp:198: 				case '^': ++i; toks.push_back({Token::Type::Caret, "^"}); break;
	mov	rbx, rax	 # tmp421,
	lea	rax, 240[rbp]	 # tmp419,
	mov	rcx, rax	 #, tmp419
	call	_ZN5TokenD1Ev	 #
	jmp	.L266	 #
.L289:
 # D:/mingw/mingw64/include/c++/15.1.0/bits/allocator.h:189:       ~allocator() _GLIBCXX_NOTHROW { }
	mov	rbx, rax	 # tmp420,
.L266:
	lea	rax, 287[rbp]	 # tmp424,
	mov	rcx, rax	 #, tmp424
	call	_ZNSt15__new_allocatorIcED2Ev	 #
	nop	
	jmp	.L254	 #
.L292:
 # D:/programs/partical_life/calcflow.cpp:199: 				case '(': ++i; toks.push_back({Token::Type::LParen,"("}); break;
	mov	rbx, rax	 # tmp427,
	lea	rax, 288[rbp]	 # tmp425,
	mov	rcx, rax	 #, tmp425
	call	_ZN5TokenD1Ev	 #
	jmp	.L268	 #
.L291:
 # D:/mingw/mingw64/include/c++/15.1.0/bits/allocator.h:189:       ~allocator() _GLIBCXX_NOTHROW { }
	mov	rbx, rax	 # tmp426,
.L268:
	lea	rax, 335[rbp]	 # tmp430,
	mov	rcx, rax	 #, tmp430
	call	_ZNSt15__new_allocatorIcED2Ev	 #
	nop	
	jmp	.L254	 #
.L294:
 # D:/programs/partical_life/calcflow.cpp:200: 				case ')': ++i; toks.push_back({Token::Type::RParen,")"}); break;
	mov	rbx, rax	 # tmp433,
	lea	rax, 336[rbp]	 # tmp431,
	mov	rcx, rax	 #, tmp431
	call	_ZN5TokenD1Ev	 #
	jmp	.L270	 #
.L293:
 # D:/mingw/mingw64/include/c++/15.1.0/bits/allocator.h:189:       ~allocator() _GLIBCXX_NOTHROW { }
	mov	rbx, rax	 # tmp432,
.L270:
	lea	rax, 383[rbp]	 # tmp436,
	mov	rcx, rax	 #, tmp436
	call	_ZNSt15__new_allocatorIcED2Ev	 #
	nop	
	jmp	.L254	 #
.L296:
 # D:/programs/partical_life/calcflow.cpp:201: 				case ',': ++i; toks.push_back({Token::Type::Comma, ","}); break;
	mov	rbx, rax	 # tmp439,
	lea	rax, 384[rbp]	 # tmp437,
	mov	rcx, rax	 #, tmp437
	call	_ZN5TokenD1Ev	 #
	jmp	.L272	 #
.L295:
 # D:/mingw/mingw64/include/c++/15.1.0/bits/allocator.h:189:       ~allocator() _GLIBCXX_NOTHROW { }
	mov	rbx, rax	 # tmp438,
.L272:
	lea	rax, 431[rbp]	 # tmp442,
	mov	rcx, rax	 #, tmp442
	call	_ZNSt15__new_allocatorIcED2Ev	 #
	nop	
	jmp	.L254	 #
.L299:
 # D:/programs/partical_life/calcflow.cpp:202: 				default: throw std::runtime_error(std::string(": ") + ch);
	mov	rsi, rax	 # tmp445,
	lea	rax, 432[rbp]	 # tmp443,
	mov	rcx, rax	 #, tmp443
	call	_ZNSt7__cxx1112basic_stringIcSt11char_traitsIcESaIcEED1Ev	 #
	jmp	.L274	 #
.L298:
 # D:/programs/partical_life/calcflow.cpp:202: 				default: throw std::runtime_error(std::string(": ") + ch);
	mov	rsi, rax	 # tmp444,
.L274:
	lea	rax, 464[rbp]	 # tmp448,
	mov	rcx, rax	 #, tmp448
	call	_ZNSt7__cxx1112basic_stringIcSt11char_traitsIcESaIcEED1Ev	 #
	jmp	.L275	 #
.L297:
 # D:/mingw/mingw64/include/c++/15.1.0/bits/allocator.h:189:       ~allocator() _GLIBCXX_NOTHROW { }
	mov	rsi, rax	 # tmp449,
.L275:
	lea	rax, 511[rbp]	 # tmp451,
	mov	rcx, rax	 #, tmp451
	call	_ZNSt15__new_allocatorIcED2Ev	 #
	nop	
 # D:/programs/partical_life/calcflow.cpp:202: 				default: throw std::runtime_error(std::string(": ") + ch);
	mov	rcx, rbx	 #, _103
	call	__cxa_free_exception	 #
	mov	rbx, rsi	 # tmp385, tmp452
	jmp	.L254	 #
.L300:
 # D:/programs/partical_life/calcflow.cpp:205: 		toks.push_back({Token::Type::Eof, {}});
	mov	rbx, rax	 # tmp455,
	lea	rax, 512[rbp]	 # tmp454,
	mov	rcx, rax	 #, tmp454
	call	_ZN5TokenD1Ev	 #
	jmp	.L254	 #
.L277:
 # D:/programs/partical_life/calcflow.cpp:207: 	}
	mov	rbx, rax	 # tmp385,
.L254:
	mov	rax, QWORD PTR 688[rbp]	 # tmp457, <retval>
	mov	rcx, rax	 #, tmp457
	call	_ZNSt6vectorI5TokenSaIS0_EED1Ev	 #
	mov	rax, rbx	 # D.139844, tmp385
	mov	rcx, rax	 #, D.139844
.LEHB48:
	call	_Unwind_Resume	 #
.LEHE48:
.L301:
	mov	rax, QWORD PTR 688[rbp]	 #, <retval>
	add	rsp, 784	 #,
	pop	rbx	 #
	pop	rsi	 #
	pop	rbp	 #
	ret	
	.seh_handler	__gxx_personality_seh0, @unwind, @except
	.seh_handlerdata
.LLSDA4755:
	.byte	0xff
	.byte	0xff
	.byte	0x1
	.uleb128 .LLSDACSE4755-.LLSDACSB4755
.LLSDACSB4755:
	.uleb128 .LEHB20-.LFB4755
	.uleb128 .LEHE20-.LEHB20
	.uleb128 0
	.uleb128 0
	.uleb128 .LEHB21-.LFB4755
	.uleb128 .LEHE21-.LEHB21
	.uleb128 .L277-.LFB4755
	.uleb128 0
	.uleb128 .LEHB22-.LFB4755
	.uleb128 .LEHE22-.LEHB22
	.uleb128 .L278-.LFB4755
	.uleb128 0
	.uleb128 .LEHB23-.LFB4755
	.uleb128 .LEHE23-.LEHB23
	.uleb128 .L277-.LFB4755
	.uleb128 0
	.uleb128 .LEHB24-.LFB4755
	.uleb128 .LEHE24-.LEHB24
	.uleb128 .L279-.LFB4755
	.uleb128 0
	.uleb128 .LEHB25-.LFB4755
	.uleb128 .LEHE25-.LEHB25
	.uleb128 .L277-.LFB4755
	.uleb128 0
	.uleb128 .LEHB26-.LFB4755
	.uleb128 .LEHE26-.LEHB26
	.uleb128 .L280-.LFB4755
	.uleb128 0
	.uleb128 .LEHB27-.LFB4755
	.uleb128 .LEHE27-.LEHB27
	.uleb128 .L281-.LFB4755
	.uleb128 0
	.uleb128 .LEHB28-.LFB4755
	.uleb128 .LEHE28-.LEHB28
	.uleb128 .L282-.LFB4755
	.uleb128 0
	.uleb128 .LEHB29-.LFB4755
	.uleb128 .LEHE29-.LEHB29
	.uleb128 .L283-.LFB4755
	.uleb128 0
	.uleb128 .LEHB30-.LFB4755
	.uleb128 .LEHE30-.LEHB30
	.uleb128 .L284-.LFB4755
	.uleb128 0
	.uleb128 .LEHB31-.LFB4755
	.uleb128 .LEHE31-.LEHB31
	.uleb128 .L285-.LFB4755
	.uleb128 0
	.uleb128 .LEHB32-.LFB4755
	.uleb128 .LEHE32-.LEHB32
	.uleb128 .L286-.LFB4755
	.uleb128 0
	.uleb128 .LEHB33-.LFB4755
	.uleb128 .LEHE33-.LEHB33
	.uleb128 .L287-.LFB4755
	.uleb128 0
	.uleb128 .LEHB34-.LFB4755
	.uleb128 .LEHE34-.LEHB34
	.uleb128 .L288-.LFB4755
	.uleb128 0
	.uleb128 .LEHB35-.LFB4755
	.uleb128 .LEHE35-.LEHB35
	.uleb128 .L289-.LFB4755
	.uleb128 0
	.uleb128 .LEHB36-.LFB4755
	.uleb128 .LEHE36-.LEHB36
	.uleb128 .L290-.LFB4755
	.uleb128 0
	.uleb128 .LEHB37-.LFB4755
	.uleb128 .LEHE37-.LEHB37
	.uleb128 .L291-.LFB4755
	.uleb128 0
	.uleb128 .LEHB38-.LFB4755
	.uleb128 .LEHE38-.LEHB38
	.uleb128 .L292-.LFB4755
	.uleb128 0
	.uleb128 .LEHB39-.LFB4755
	.uleb128 .LEHE39-.LEHB39
	.uleb128 .L293-.LFB4755
	.uleb128 0
	.uleb128 .LEHB40-.LFB4755
	.uleb128 .LEHE40-.LEHB40
	.uleb128 .L294-.LFB4755
	.uleb128 0
	.uleb128 .LEHB41-.LFB4755
	.uleb128 .LEHE41-.LEHB41
	.uleb128 .L295-.LFB4755
	.uleb128 0
	.uleb128 .LEHB42-.LFB4755
	.uleb128 .LEHE42-.LEHB42
	.uleb128 .L296-.LFB4755
	.uleb128 0
	.uleb128 .LEHB43-.LFB4755
	.uleb128 .LEHE43-.LEHB43
	.uleb128 .L297-.LFB4755
	.uleb128 0
	.uleb128 .LEHB44-.LFB4755
	.uleb128 .LEHE44-.LEHB44
	.uleb128 .L298-.LFB4755
	.uleb128 0
	.uleb128 .LEHB45-.LFB4755
	.uleb128 .LEHE45-.LEHB45
	.uleb128 .L299-.LFB4755
	.uleb128 0
	.uleb128 .LEHB46-.LFB4755
	.uleb128 .LEHE46-.LEHB46
	.uleb128 .L277-.LFB4755
	.uleb128 0
	.uleb128 .LEHB47-.LFB4755
	.uleb128 .LEHE47-.LEHB47
	.uleb128 .L300-.LFB4755
	.uleb128 0
	.uleb128 .LEHB48-.LFB4755
	.uleb128 .LEHE48-.LEHB48
	.uleb128 0
	.uleb128 0
.LLSDACSE4755:
	.section	.text$_ZN9Tokenizer3lexERKNSt7__cxx1112basic_stringIcSt11char_traitsIcESaIcEEE,"x"
	.linkonce discard
	.seh_endproc
	.section	.text$_ZNSt4pairIKNSt7__cxx1112basic_stringIcSt11char_traitsIcESaIcEEESt7complexIdEED1Ev,"x"
	.linkonce discard
	.align 2
	.globl	_ZNSt4pairIKNSt7__cxx1112basic_stringIcSt11char_traitsIcESaIcEEESt7complexIdEED1Ev
	.def	_ZNSt4pairIKNSt7__cxx1112basic_stringIcSt11char_traitsIcESaIcEEESt7complexIdEED1Ev;	.scl	2;	.type	32;	.endef
	.seh_proc	_ZNSt4pairIKNSt7__cxx1112basic_stringIcSt11char_traitsIcESaIcEEESt7complexIdEED1Ev
_ZNSt4pairIKNSt7__cxx1112basic_stringIcSt11char_traitsIcESaIcEEESt7complexIdEED1Ev:
.LFB4784:
	push	rbp	 #
	.seh_pushreg	rbp
	mov	rbp, rsp	 #,
	.seh_setframe	rbp, 0
	sub	rsp, 32	 #,
	.seh_stackalloc	32
	.seh_endprologue
	mov	QWORD PTR 16[rbp], rcx	 # this, this
 # D:/mingw/mingw64/include/c++/15.1.0/bits/stl_pair.h:302:     struct pair
	mov	rax, QWORD PTR 16[rbp]	 # _1, this
	mov	rcx, rax	 #, _1
	call	_ZNSt7__cxx1112basic_stringIcSt11char_traitsIcESaIcEED1Ev	 #
	nop	
	add	rsp, 32	 #,
	pop	rbp	 #
	ret	
	.seh_endproc
	.section	.text$_ZNSt4pairIKNSt7__cxx1112basic_stringIcSt11char_traitsIcESaIcEEESt7complexIdEEC1IRA3_KcS8_Lb1EEEOT_OT0_,"x"
	.linkonce discard
	.align 2
	.globl	_ZNSt4pairIKNSt7__cxx1112basic_stringIcSt11char_traitsIcESaIcEEESt7complexIdEEC1IRA3_KcS8_Lb1EEEOT_OT0_
	.def	_ZNSt4pairIKNSt7__cxx1112basic_stringIcSt11char_traitsIcESaIcEEESt7complexIdEEC1IRA3_KcS8_Lb1EEEOT_OT0_;	.scl	2;	.type	32;	.endef
	.seh_proc	_ZNSt4pairIKNSt7__cxx1112basic_stringIcSt11char_traitsIcESaIcEEESt7complexIdEEC1IRA3_KcS8_Lb1EEEOT_OT0_
_ZNSt4pairIKNSt7__cxx1112basic_stringIcSt11char_traitsIcESaIcEEESt7complexIdEEC1IRA3_KcS8_Lb1EEEOT_OT0_:
.LFB4787:
	push	rbp	 #
	.seh_pushreg	rbp
	push	rbx	 #
	.seh_pushreg	rbx
	sub	rsp, 72	 #,
	.seh_stackalloc	72
	lea	rbp, 64[rsp]	 #,
	.seh_setframe	rbp, 64
	.seh_endprologue
	mov	QWORD PTR 32[rbp], rcx	 # this, this
	mov	QWORD PTR 40[rbp], rdx	 # __x, __x
	mov	QWORD PTR 48[rbp], r8	 # __y, __y
 # D:/mingw/mingw64/include/c++/15.1.0/bits/stl_pair.h:902: 	: first(std::forward<_U1>(__x)), second(std::forward<_U2>(__y))
	mov	rax, QWORD PTR 32[rbp]	 # _1, this
	lea	rdx, -25[rbp]	 # tmp103,
	mov	QWORD PTR -16[rbp], rdx	 # this, tmp103
 # D:/mingw/mingw64/include/c++/15.1.0/bits/new_allocator.h:88:       __new_allocator() _GLIBCXX_USE_NOEXCEPT { }
	nop	
 # D:/mingw/mingw64/include/c++/15.1.0/bits/allocator.h:168:       allocator() _GLIBCXX_NOTHROW { }
	nop	
	mov	rdx, QWORD PTR 40[rbp]	 # tmp104, __x
	mov	QWORD PTR -8[rbp], rdx	 # __t, tmp104
 # D:/mingw/mingw64/include/c++/15.1.0/bits/move.h:73:     { return static_cast<_Tp&&>(__t); }
	mov	rdx, QWORD PTR -8[rbp]	 # D.137125, __t
 # D:/mingw/mingw64/include/c++/15.1.0/bits/stl_pair.h:902: 	: first(std::forward<_U1>(__x)), second(std::forward<_U2>(__y))
	lea	rcx, -25[rbp]	 # tmp105,
	mov	r8, rcx	 #, tmp105
	mov	rcx, rax	 #, _1
.LEHB49:
	call	_ZNSt7__cxx1112basic_stringIcSt11char_traitsIcESaIcEEC1IS3_EEPKcRKS3_	 #
.LEHE49:
 # D:/mingw/mingw64/include/c++/15.1.0/bits/allocator.h:189:       ~allocator() _GLIBCXX_NOTHROW { }
	lea	rax, -25[rbp]	 # tmp106,
	mov	rcx, rax	 #, tmp106
	call	_ZNSt15__new_allocatorIcED2Ev	 #
	nop	
	mov	rax, QWORD PTR 48[rbp]	 # tmp107, __y
	mov	QWORD PTR -24[rbp], rax	 # __t, tmp107
 # D:/mingw/mingw64/include/c++/15.1.0/bits/move.h:73:     { return static_cast<_Tp&&>(__t); }
	mov	rdx, QWORD PTR -24[rbp]	 # D.137131, __t
 # D:/mingw/mingw64/include/c++/15.1.0/bits/stl_pair.h:902: 	: first(std::forward<_U1>(__x)), second(std::forward<_U2>(__y))
	mov	rax, QWORD PTR 32[rbp]	 # tmp108, this
	movsd	xmm0, QWORD PTR [rdx]	 # tmp109, MEM[(const struct complex &)_3]
	movsd	QWORD PTR 32[rax], xmm0	 # this_6(D)->second, tmp109
	movsd	xmm0, QWORD PTR 8[rdx]	 # tmp110, MEM[(const struct complex &)_3]
	movsd	QWORD PTR 40[rax], xmm0	 # this_6(D)->second, tmp110
 # D:/mingw/mingw64/include/c++/15.1.0/bits/stl_pair.h:903: 	{ __glibcxx_no_dangling_refs(_U1&&, _U2&&); }
	jmp	.L308	 #
.L307:
 # D:/mingw/mingw64/include/c++/15.1.0/bits/allocator.h:189:       ~allocator() _GLIBCXX_NOTHROW { }
	mov	rbx, rax	 # tmp112,
	lea	rax, -25[rbp]	 # tmp111,
	mov	rcx, rax	 #, tmp111
	call	_ZNSt15__new_allocatorIcED2Ev	 #
	nop	
	mov	rax, rbx	 # D.139862, tmp112
	mov	rcx, rax	 #, D.139862
.LEHB50:
	call	_Unwind_Resume	 #
	nop	
.LEHE50:
.L308:
 # D:/mingw/mingw64/include/c++/15.1.0/bits/stl_pair.h:903: 	{ __glibcxx_no_dangling_refs(_U1&&, _U2&&); }
	add	rsp, 72	 #,
	pop	rbx	 #
	pop	rbp	 #
	ret	
	.seh_handler	__gxx_personality_seh0, @unwind, @except
	.seh_handlerdata
.LLSDA4787:
	.byte	0xff
	.byte	0xff
	.byte	0x1
	.uleb128 .LLSDACSE4787-.LLSDACSB4787
.LLSDACSB4787:
	.uleb128 .LEHB49-.LFB4787
	.uleb128 .LEHE49-.LEHB49
	.uleb128 .L307-.LFB4787
	.uleb128 0
	.uleb128 .LEHB50-.LFB4787
	.uleb128 .LEHE50-.LEHB50
	.uleb128 0
	.uleb128 0
.LLSDACSE4787:
	.section	.text$_ZNSt4pairIKNSt7__cxx1112basic_stringIcSt11char_traitsIcESaIcEEESt7complexIdEEC1IRA3_KcS8_Lb1EEEOT_OT0_,"x"
	.linkonce discard
	.seh_endproc
	.section	.text$_ZNSt4pairIKNSt7__cxx1112basic_stringIcSt11char_traitsIcESaIcEEESt7complexIdEEC1IRA2_KcS8_Lb1EEEOT_OT0_,"x"
	.linkonce discard
	.align 2
	.globl	_ZNSt4pairIKNSt7__cxx1112basic_stringIcSt11char_traitsIcESaIcEEESt7complexIdEEC1IRA2_KcS8_Lb1EEEOT_OT0_
	.def	_ZNSt4pairIKNSt7__cxx1112basic_stringIcSt11char_traitsIcESaIcEEESt7complexIdEEC1IRA2_KcS8_Lb1EEEOT_OT0_;	.scl	2;	.type	32;	.endef
	.seh_proc	_ZNSt4pairIKNSt7__cxx1112basic_stringIcSt11char_traitsIcESaIcEEESt7complexIdEEC1IRA2_KcS8_Lb1EEEOT_OT0_
_ZNSt4pairIKNSt7__cxx1112basic_stringIcSt11char_traitsIcESaIcEEESt7complexIdEEC1IRA2_KcS8_Lb1EEEOT_OT0_:
.LFB4790:
	push	rbp	 #
	.seh_pushreg	rbp
	push	rbx	 #
	.seh_pushreg	rbx
	sub	rsp, 72	 #,
	.seh_stackalloc	72
	lea	rbp, 64[rsp]	 #,
	.seh_setframe	rbp, 64
	.seh_endprologue
	mov	QWORD PTR 32[rbp], rcx	 # this, this
	mov	QWORD PTR 40[rbp], rdx	 # __x, __x
	mov	QWORD PTR 48[rbp], r8	 # __y, __y
 # D:/mingw/mingw64/include/c++/15.1.0/bits/stl_pair.h:902: 	: first(std::forward<_U1>(__x)), second(std::forward<_U2>(__y))
	mov	rax, QWORD PTR 32[rbp]	 # _1, this
	lea	rdx, -25[rbp]	 # tmp103,
	mov	QWORD PTR -16[rbp], rdx	 # this, tmp103
 # D:/mingw/mingw64/include/c++/15.1.0/bits/new_allocator.h:88:       __new_allocator() _GLIBCXX_USE_NOEXCEPT { }
	nop	
 # D:/mingw/mingw64/include/c++/15.1.0/bits/allocator.h:168:       allocator() _GLIBCXX_NOTHROW { }
	nop	
	mov	rdx, QWORD PTR 40[rbp]	 # tmp104, __x
	mov	QWORD PTR -8[rbp], rdx	 # __t, tmp104
 # D:/mingw/mingw64/include/c++/15.1.0/bits/move.h:73:     { return static_cast<_Tp&&>(__t); }
	mov	rdx, QWORD PTR -8[rbp]	 # D.137137, __t
 # D:/mingw/mingw64/include/c++/15.1.0/bits/stl_pair.h:902: 	: first(std::forward<_U1>(__x)), second(std::forward<_U2>(__y))
	lea	rcx, -25[rbp]	 # tmp105,
	mov	r8, rcx	 #, tmp105
	mov	rcx, rax	 #, _1
.LEHB51:
	call	_ZNSt7__cxx1112basic_stringIcSt11char_traitsIcESaIcEEC1IS3_EEPKcRKS3_	 #
.LEHE51:
 # D:/mingw/mingw64/include/c++/15.1.0/bits/allocator.h:189:       ~allocator() _GLIBCXX_NOTHROW { }
	lea	rax, -25[rbp]	 # tmp106,
	mov	rcx, rax	 #, tmp106
	call	_ZNSt15__new_allocatorIcED2Ev	 #
	nop	
	mov	rax, QWORD PTR 48[rbp]	 # tmp107, __y
	mov	QWORD PTR -24[rbp], rax	 # __t, tmp107
 # D:/mingw/mingw64/include/c++/15.1.0/bits/move.h:73:     { return static_cast<_Tp&&>(__t); }
	mov	rdx, QWORD PTR -24[rbp]	 # D.137143, __t
 # D:/mingw/mingw64/include/c++/15.1.0/bits/stl_pair.h:902: 	: first(std::forward<_U1>(__x)), second(std::forward<_U2>(__y))
	mov	rax, QWORD PTR 32[rbp]	 # tmp108, this
	movsd	xmm0, QWORD PTR [rdx]	 # tmp109, MEM[(const struct complex &)_3]
	movsd	QWORD PTR 32[rax], xmm0	 # this_6(D)->second, tmp109
	movsd	xmm0, QWORD PTR 8[rdx]	 # tmp110, MEM[(const struct complex &)_3]
	movsd	QWORD PTR 40[rax], xmm0	 # this_6(D)->second, tmp110
 # D:/mingw/mingw64/include/c++/15.1.0/bits/stl_pair.h:903: 	{ __glibcxx_no_dangling_refs(_U1&&, _U2&&); }
	jmp	.L314	 #
.L313:
 # D:/mingw/mingw64/include/c++/15.1.0/bits/allocator.h:189:       ~allocator() _GLIBCXX_NOTHROW { }
	mov	rbx, rax	 # tmp112,
	lea	rax, -25[rbp]	 # tmp111,
	mov	rcx, rax	 #, tmp111
	call	_ZNSt15__new_allocatorIcED2Ev	 #
	nop	
	mov	rax, rbx	 # D.139863, tmp112
	mov	rcx, rax	 #, D.139863
.LEHB52:
	call	_Unwind_Resume	 #
	nop	
.LEHE52:
.L314:
 # D:/mingw/mingw64/include/c++/15.1.0/bits/stl_pair.h:903: 	{ __glibcxx_no_dangling_refs(_U1&&, _U2&&); }
	add	rsp, 72	 #,
	pop	rbx	 #
	pop	rbp	 #
	ret	
	.seh_handler	__gxx_personality_seh0, @unwind, @except
	.seh_handlerdata
.LLSDA4790:
	.byte	0xff
	.byte	0xff
	.byte	0x1
	.uleb128 .LLSDACSE4790-.LLSDACSB4790
.LLSDACSB4790:
	.uleb128 .LEHB51-.LFB4790
	.uleb128 .LEHE51-.LEHB51
	.uleb128 .L313-.LFB4790
	.uleb128 0
	.uleb128 .LEHB52-.LFB4790
	.uleb128 .LEHE52-.LEHB52
	.uleb128 0
	.uleb128 0
.LLSDACSE4790:
	.section	.text$_ZNSt4pairIKNSt7__cxx1112basic_stringIcSt11char_traitsIcESaIcEEESt7complexIdEEC1IRA2_KcS8_Lb1EEEOT_OT0_,"x"
	.linkonce discard
	.seh_endproc
.lcomm _ZL9CONST_MAP,56,32
	.section .rdata,"dr"
.LC21:
	.ascii "push\0"
.LC22:
	.ascii "add\0"
.LC23:
	.ascii "sub\0"
.LC24:
	.ascii "mul\0"
.LC25:
	.ascii "div\0"
.LC26:
	.ascii "pow\0"
.LC27:
	.ascii "log\0"
.LC28:
	.ascii "neg\0"
.LC29:
	.ascii "sin\0"
.LC30:
	.ascii "cos\0"
.LC31:
	.ascii "tan\0"
.LC32:
	.ascii "exp\0"
.LC33:
	.ascii "abs\0"
.LC34:
	.ascii "var\0"
.LC35:
	.ascii "\346\234\252\345\256\232\344\271\211\347\232\204\345\207\275\346\225\260: \0"
	.text
	.globl	_Z16kind_from_opnameRKNSt7__cxx1112basic_stringIcSt11char_traitsIcESaIcEEE
	.def	_Z16kind_from_opnameRKNSt7__cxx1112basic_stringIcSt11char_traitsIcESaIcEEE;	.scl	2;	.type	32;	.endef
	.seh_proc	_Z16kind_from_opnameRKNSt7__cxx1112basic_stringIcSt11char_traitsIcESaIcEEE
_Z16kind_from_opnameRKNSt7__cxx1112basic_stringIcSt11char_traitsIcESaIcEEE:
.LFB4791:
	push	rbp	 #
	.seh_pushreg	rbp
	push	rsi	 #
	.seh_pushreg	rsi
	push	rbx	 #
	.seh_pushreg	rbx
	sub	rsp, 64	 #,
	.seh_stackalloc	64
	lea	rbp, 64[rsp]	 #,
	.seh_setframe	rbp, 64
	.seh_endprologue
	mov	QWORD PTR 32[rbp], rcx	 # name, name
 # D:/programs/partical_life/calcflow.cpp:219: 	if (name == "push") return OpKind::Push;
	lea	rdx, .LC21[rip]	 # tmp116,
	mov	rax, QWORD PTR 32[rbp]	 # tmp117, name
	mov	rcx, rax	 #, tmp117
.LEHB53:
	call	_ZSteqIcSt11char_traitsIcESaIcEEbRKNSt7__cxx1112basic_stringIT_T0_T1_EEPKS5_	 #
 # D:/programs/partical_life/calcflow.cpp:219: 	if (name == "push") return OpKind::Push;
	test	al, al	 # _8
	je	.L316	 #,
 # D:/programs/partical_life/calcflow.cpp:219: 	if (name == "push") return OpKind::Push;
	mov	eax, 0	 # _2,
 # D:/programs/partical_life/calcflow.cpp:219: 	if (name == "push") return OpKind::Push;
	jmp	.L335	 #
.L316:
 # D:/programs/partical_life/calcflow.cpp:220: 	if (name == "add")  return OpKind::Add;
	lea	rdx, .LC22[rip]	 # tmp118,
	mov	rax, QWORD PTR 32[rbp]	 # tmp119, name
	mov	rcx, rax	 #, tmp119
	call	_ZSteqIcSt11char_traitsIcESaIcEEbRKNSt7__cxx1112basic_stringIT_T0_T1_EEPKS5_	 #
 # D:/programs/partical_life/calcflow.cpp:220: 	if (name == "add")  return OpKind::Add;
	test	al, al	 # _11
	je	.L318	 #,
 # D:/programs/partical_life/calcflow.cpp:220: 	if (name == "add")  return OpKind::Add;
	mov	eax, 1	 # _2,
 # D:/programs/partical_life/calcflow.cpp:220: 	if (name == "add")  return OpKind::Add;
	jmp	.L335	 #
.L318:
 # D:/programs/partical_life/calcflow.cpp:221: 	if (name == "sub")  return OpKind::Sub;
	lea	rdx, .LC23[rip]	 # tmp120,
	mov	rax, QWORD PTR 32[rbp]	 # tmp121, name
	mov	rcx, rax	 #, tmp121
	call	_ZSteqIcSt11char_traitsIcESaIcEEbRKNSt7__cxx1112basic_stringIT_T0_T1_EEPKS5_	 #
 # D:/programs/partical_life/calcflow.cpp:221: 	if (name == "sub")  return OpKind::Sub;
	test	al, al	 # _14
	je	.L319	 #,
 # D:/programs/partical_life/calcflow.cpp:221: 	if (name == "sub")  return OpKind::Sub;
	mov	eax, 2	 # _2,
 # D:/programs/partical_life/calcflow.cpp:221: 	if (name == "sub")  return OpKind::Sub;
	jmp	.L335	 #
.L319:
 # D:/programs/partical_life/calcflow.cpp:222: 	if (name == "mul")  return OpKind::Mul;
	lea	rdx, .LC24[rip]	 # tmp122,
	mov	rax, QWORD PTR 32[rbp]	 # tmp123, name
	mov	rcx, rax	 #, tmp123
	call	_ZSteqIcSt11char_traitsIcESaIcEEbRKNSt7__cxx1112basic_stringIT_T0_T1_EEPKS5_	 #
 # D:/programs/partical_life/calcflow.cpp:222: 	if (name == "mul")  return OpKind::Mul;
	test	al, al	 # _17
	je	.L320	 #,
 # D:/programs/partical_life/calcflow.cpp:222: 	if (name == "mul")  return OpKind::Mul;
	mov	eax, 3	 # _2,
 # D:/programs/partical_life/calcflow.cpp:222: 	if (name == "mul")  return OpKind::Mul;
	jmp	.L335	 #
.L320:
 # D:/programs/partical_life/calcflow.cpp:223: 	if (name == "div")  return OpKind::Div;
	lea	rdx, .LC25[rip]	 # tmp124,
	mov	rax, QWORD PTR 32[rbp]	 # tmp125, name
	mov	rcx, rax	 #, tmp125
	call	_ZSteqIcSt11char_traitsIcESaIcEEbRKNSt7__cxx1112basic_stringIT_T0_T1_EEPKS5_	 #
 # D:/programs/partical_life/calcflow.cpp:223: 	if (name == "div")  return OpKind::Div;
	test	al, al	 # _20
	je	.L321	 #,
 # D:/programs/partical_life/calcflow.cpp:223: 	if (name == "div")  return OpKind::Div;
	mov	eax, 4	 # _2,
 # D:/programs/partical_life/calcflow.cpp:223: 	if (name == "div")  return OpKind::Div;
	jmp	.L335	 #
.L321:
 # D:/programs/partical_life/calcflow.cpp:224: 	if (name == "pow")  return OpKind::Pow;
	lea	rdx, .LC26[rip]	 # tmp126,
	mov	rax, QWORD PTR 32[rbp]	 # tmp127, name
	mov	rcx, rax	 #, tmp127
	call	_ZSteqIcSt11char_traitsIcESaIcEEbRKNSt7__cxx1112basic_stringIT_T0_T1_EEPKS5_	 #
 # D:/programs/partical_life/calcflow.cpp:224: 	if (name == "pow")  return OpKind::Pow;
	test	al, al	 # _23
	je	.L322	 #,
 # D:/programs/partical_life/calcflow.cpp:224: 	if (name == "pow")  return OpKind::Pow;
	mov	eax, 5	 # _2,
 # D:/programs/partical_life/calcflow.cpp:224: 	if (name == "pow")  return OpKind::Pow;
	jmp	.L335	 #
.L322:
 # D:/programs/partical_life/calcflow.cpp:225: 	if (name == "log")  return OpKind::Log;
	lea	rdx, .LC27[rip]	 # tmp128,
	mov	rax, QWORD PTR 32[rbp]	 # tmp129, name
	mov	rcx, rax	 #, tmp129
	call	_ZSteqIcSt11char_traitsIcESaIcEEbRKNSt7__cxx1112basic_stringIT_T0_T1_EEPKS5_	 #
 # D:/programs/partical_life/calcflow.cpp:225: 	if (name == "log")  return OpKind::Log;
	test	al, al	 # _26
	je	.L323	 #,
 # D:/programs/partical_life/calcflow.cpp:225: 	if (name == "log")  return OpKind::Log;
	mov	eax, 6	 # _2,
 # D:/programs/partical_life/calcflow.cpp:225: 	if (name == "log")  return OpKind::Log;
	jmp	.L335	 #
.L323:
 # D:/programs/partical_life/calcflow.cpp:226: 	if (name == "neg")  return OpKind::Neg;
	lea	rdx, .LC28[rip]	 # tmp130,
	mov	rax, QWORD PTR 32[rbp]	 # tmp131, name
	mov	rcx, rax	 #, tmp131
	call	_ZSteqIcSt11char_traitsIcESaIcEEbRKNSt7__cxx1112basic_stringIT_T0_T1_EEPKS5_	 #
 # D:/programs/partical_life/calcflow.cpp:226: 	if (name == "neg")  return OpKind::Neg;
	test	al, al	 # _29
	je	.L324	 #,
 # D:/programs/partical_life/calcflow.cpp:226: 	if (name == "neg")  return OpKind::Neg;
	mov	eax, 7	 # _2,
 # D:/programs/partical_life/calcflow.cpp:226: 	if (name == "neg")  return OpKind::Neg;
	jmp	.L335	 #
.L324:
 # D:/programs/partical_life/calcflow.cpp:227: 	if (name == "sin")  return OpKind::Sin;
	lea	rdx, .LC29[rip]	 # tmp132,
	mov	rax, QWORD PTR 32[rbp]	 # tmp133, name
	mov	rcx, rax	 #, tmp133
	call	_ZSteqIcSt11char_traitsIcESaIcEEbRKNSt7__cxx1112basic_stringIT_T0_T1_EEPKS5_	 #
 # D:/programs/partical_life/calcflow.cpp:227: 	if (name == "sin")  return OpKind::Sin;
	test	al, al	 # _32
	je	.L325	 #,
 # D:/programs/partical_life/calcflow.cpp:227: 	if (name == "sin")  return OpKind::Sin;
	mov	eax, 8	 # _2,
 # D:/programs/partical_life/calcflow.cpp:227: 	if (name == "sin")  return OpKind::Sin;
	jmp	.L335	 #
.L325:
 # D:/programs/partical_life/calcflow.cpp:228: 	if (name == "cos")  return OpKind::Cos;
	lea	rdx, .LC30[rip]	 # tmp134,
	mov	rax, QWORD PTR 32[rbp]	 # tmp135, name
	mov	rcx, rax	 #, tmp135
	call	_ZSteqIcSt11char_traitsIcESaIcEEbRKNSt7__cxx1112basic_stringIT_T0_T1_EEPKS5_	 #
 # D:/programs/partical_life/calcflow.cpp:228: 	if (name == "cos")  return OpKind::Cos;
	test	al, al	 # _35
	je	.L326	 #,
 # D:/programs/partical_life/calcflow.cpp:228: 	if (name == "cos")  return OpKind::Cos;
	mov	eax, 9	 # _2,
 # D:/programs/partical_life/calcflow.cpp:228: 	if (name == "cos")  return OpKind::Cos;
	jmp	.L335	 #
.L326:
 # D:/programs/partical_life/calcflow.cpp:229: 	if (name == "tan")  return OpKind::Tan;
	lea	rdx, .LC31[rip]	 # tmp136,
	mov	rax, QWORD PTR 32[rbp]	 # tmp137, name
	mov	rcx, rax	 #, tmp137
	call	_ZSteqIcSt11char_traitsIcESaIcEEbRKNSt7__cxx1112basic_stringIT_T0_T1_EEPKS5_	 #
 # D:/programs/partical_life/calcflow.cpp:229: 	if (name == "tan")  return OpKind::Tan;
	test	al, al	 # _38
	je	.L327	 #,
 # D:/programs/partical_life/calcflow.cpp:229: 	if (name == "tan")  return OpKind::Tan;
	mov	eax, 10	 # _2,
 # D:/programs/partical_life/calcflow.cpp:229: 	if (name == "tan")  return OpKind::Tan;
	jmp	.L335	 #
.L327:
 # D:/programs/partical_life/calcflow.cpp:230: 	if (name == "exp")  return OpKind::Exp;
	lea	rdx, .LC32[rip]	 # tmp138,
	mov	rax, QWORD PTR 32[rbp]	 # tmp139, name
	mov	rcx, rax	 #, tmp139
	call	_ZSteqIcSt11char_traitsIcESaIcEEbRKNSt7__cxx1112basic_stringIT_T0_T1_EEPKS5_	 #
 # D:/programs/partical_life/calcflow.cpp:230: 	if (name == "exp")  return OpKind::Exp;
	test	al, al	 # _41
	je	.L328	 #,
 # D:/programs/partical_life/calcflow.cpp:230: 	if (name == "exp")  return OpKind::Exp;
	mov	eax, 11	 # _2,
 # D:/programs/partical_life/calcflow.cpp:230: 	if (name == "exp")  return OpKind::Exp;
	jmp	.L335	 #
.L328:
 # D:/programs/partical_life/calcflow.cpp:231: 	if (name == "abs")  return OpKind::Abs;
	lea	rdx, .LC33[rip]	 # tmp140,
	mov	rax, QWORD PTR 32[rbp]	 # tmp141, name
	mov	rcx, rax	 #, tmp141
	call	_ZSteqIcSt11char_traitsIcESaIcEEbRKNSt7__cxx1112basic_stringIT_T0_T1_EEPKS5_	 #
 # D:/programs/partical_life/calcflow.cpp:231: 	if (name == "abs")  return OpKind::Abs;
	test	al, al	 # _44
	je	.L329	 #,
 # D:/programs/partical_life/calcflow.cpp:231: 	if (name == "abs")  return OpKind::Abs;
	mov	eax, 12	 # _2,
 # D:/programs/partical_life/calcflow.cpp:231: 	if (name == "abs")  return OpKind::Abs;
	jmp	.L335	 #
.L329:
 # D:/programs/partical_life/calcflow.cpp:232: 	if (name == "var")  return OpKind::Var;
	lea	rdx, .LC34[rip]	 # tmp142,
	mov	rax, QWORD PTR 32[rbp]	 # tmp143, name
	mov	rcx, rax	 #, tmp143
	call	_ZSteqIcSt11char_traitsIcESaIcEEbRKNSt7__cxx1112basic_stringIT_T0_T1_EEPKS5_	 #
.LEHE53:
 # D:/programs/partical_life/calcflow.cpp:232: 	if (name == "var")  return OpKind::Var;
	test	al, al	 # _47
	je	.L330	 #,
 # D:/programs/partical_life/calcflow.cpp:232: 	if (name == "var")  return OpKind::Var;
	mov	eax, 13	 # _2,
 # D:/programs/partical_life/calcflow.cpp:232: 	if (name == "var")  return OpKind::Var;
	jmp	.L335	 #
.L330:
 # D:/programs/partical_life/calcflow.cpp:234: 	throw std::runtime_error(": " + name);
	mov	ecx, 16	 #,
	call	__cxa_allocate_exception	 #
	mov	rbx, rax	 # _1, tmp144
 # D:/programs/partical_life/calcflow.cpp:234: 	throw std::runtime_error(": " + name);
	lea	rax, -32[rbp]	 # tmp145,
	mov	rcx, QWORD PTR 32[rbp]	 # tmp146, name
	lea	rdx, .LC35[rip]	 # tmp147,
	mov	r8, rcx	 #, tmp146
	mov	rcx, rax	 #, tmp145
.LEHB54:
	call	_ZStplIcSt11char_traitsIcESaIcEENSt7__cxx1112basic_stringIT_T0_T1_EEPKS5_RKS8_	 #
.LEHE54:
 # D:/programs/partical_life/calcflow.cpp:234: 	throw std::runtime_error(": " + name);
	lea	rax, -32[rbp]	 # tmp148,
	mov	rdx, rax	 #, tmp148
	mov	rcx, rbx	 #, _1
.LEHB55:
	call	_ZNSt13runtime_errorC1ERKNSt7__cxx1112basic_stringIcSt11char_traitsIcESaIcEEE	 #
.LEHE55:
 # D:/programs/partical_life/calcflow.cpp:234: 	throw std::runtime_error(": " + name);
	lea	rax, -32[rbp]	 # tmp149,
	mov	rcx, rax	 #, tmp149
	call	_ZNSt7__cxx1112basic_stringIcSt11char_traitsIcESaIcEED1Ev	 #
 # D:/programs/partical_life/calcflow.cpp:234: 	throw std::runtime_error(": " + name);
	mov	rdx, QWORD PTR .refptr._ZNSt13runtime_errorD1Ev[rip]	 # tmp150,
	lea	rax, _ZTISt13runtime_error[rip]	 # tmp151,
	mov	r8, rdx	 #, tmp150
	mov	rdx, rax	 #, tmp151
	mov	rcx, rbx	 #, _1
.LEHB56:
	call	__cxa_throw	 #
.L334:
 # D:/programs/partical_life/calcflow.cpp:234: 	throw std::runtime_error(": " + name);
	mov	rsi, rax	 # tmp155,
	lea	rax, -32[rbp]	 # tmp153,
	mov	rcx, rax	 #, tmp153
	call	_ZNSt7__cxx1112basic_stringIcSt11char_traitsIcESaIcEED1Ev	 #
	jmp	.L332	 #
.L333:
 # D:/programs/partical_life/calcflow.cpp:234: 	throw std::runtime_error(": " + name);
	mov	rsi, rax	 # tmp154,
.L332:
	mov	rcx, rbx	 #, _1
	call	__cxa_free_exception	 #
	mov	rax, rsi	 # D.139864, tmp154
	mov	rcx, rax	 #, D.139864
	call	_Unwind_Resume	 #
.LEHE56:
.L335:
 # D:/programs/partical_life/calcflow.cpp:235: }
	add	rsp, 64	 #,
	pop	rbx	 #
	pop	rsi	 #
	pop	rbp	 #
	ret	
	.seh_handler	__gxx_personality_seh0, @unwind, @except
	.seh_handlerdata
.LLSDA4791:
	.byte	0xff
	.byte	0xff
	.byte	0x1
	.uleb128 .LLSDACSE4791-.LLSDACSB4791
.LLSDACSB4791:
	.uleb128 .LEHB53-.LFB4791
	.uleb128 .LEHE53-.LEHB53
	.uleb128 0
	.uleb128 0
	.uleb128 .LEHB54-.LFB4791
	.uleb128 .LEHE54-.LEHB54
	.uleb128 .L333-.LFB4791
	.uleb128 0
	.uleb128 .LEHB55-.LFB4791
	.uleb128 .LEHE55-.LEHB55
	.uleb128 .L334-.LFB4791
	.uleb128 0
	.uleb128 .LEHB56-.LFB4791
	.uleb128 .LEHE56-.LEHB56
	.uleb128 0
	.uleb128 0
.LLSDACSE4791:
	.text
	.seh_endproc
	.section .rdata,"dr"
.LC36:
	.ascii "unknown\0"
	.text
	.globl	_Z16opname_from_kind6OpKind
	.def	_Z16opname_from_kind6OpKind;	.scl	2;	.type	32;	.endef
	.seh_proc	_Z16opname_from_kind6OpKind
_Z16opname_from_kind6OpKind:
.LFB4792:
	push	rbp	 #
	.seh_pushreg	rbp
	mov	rbp, rsp	 #,
	.seh_setframe	rbp, 0
	.seh_endprologue
	mov	DWORD PTR 16[rbp], ecx	 # k, k
 # D:/programs/partical_life/calcflow.cpp:238:     switch (k) {
	cmp	DWORD PTR 16[rbp], 13	 # k,
	je	.L337	 #,
	cmp	DWORD PTR 16[rbp], 13	 # k,
	jg	.L338	 #,
	cmp	DWORD PTR 16[rbp], 12	 # k,
	je	.L339	 #,
	cmp	DWORD PTR 16[rbp], 12	 # k,
	jg	.L338	 #,
	cmp	DWORD PTR 16[rbp], 11	 # k,
	je	.L340	 #,
	cmp	DWORD PTR 16[rbp], 11	 # k,
	jg	.L338	 #,
	cmp	DWORD PTR 16[rbp], 10	 # k,
	je	.L341	 #,
	cmp	DWORD PTR 16[rbp], 10	 # k,
	jg	.L338	 #,
	cmp	DWORD PTR 16[rbp], 9	 # k,
	je	.L342	 #,
	cmp	DWORD PTR 16[rbp], 9	 # k,
	jg	.L338	 #,
	cmp	DWORD PTR 16[rbp], 8	 # k,
	je	.L343	 #,
	cmp	DWORD PTR 16[rbp], 8	 # k,
	jg	.L338	 #,
	cmp	DWORD PTR 16[rbp], 7	 # k,
	je	.L344	 #,
	cmp	DWORD PTR 16[rbp], 7	 # k,
	jg	.L338	 #,
	cmp	DWORD PTR 16[rbp], 6	 # k,
	je	.L345	 #,
	cmp	DWORD PTR 16[rbp], 6	 # k,
	jg	.L338	 #,
	cmp	DWORD PTR 16[rbp], 5	 # k,
	je	.L346	 #,
	cmp	DWORD PTR 16[rbp], 5	 # k,
	jg	.L338	 #,
	cmp	DWORD PTR 16[rbp], 4	 # k,
	je	.L347	 #,
	cmp	DWORD PTR 16[rbp], 4	 # k,
	jg	.L338	 #,
	cmp	DWORD PTR 16[rbp], 3	 # k,
	je	.L348	 #,
	cmp	DWORD PTR 16[rbp], 3	 # k,
	jg	.L338	 #,
	cmp	DWORD PTR 16[rbp], 2	 # k,
	je	.L349	 #,
	cmp	DWORD PTR 16[rbp], 2	 # k,
	jg	.L338	 #,
	cmp	DWORD PTR 16[rbp], 0	 # k,
	je	.L350	 #,
	cmp	DWORD PTR 16[rbp], 1	 # k,
	je	.L351	 #,
	jmp	.L338	 #
.L350:
 # D:/programs/partical_life/calcflow.cpp:239:         case OpKind::Push: return "push";
	lea	rax, .LC21[rip]	 # _1,
	jmp	.L352	 #
.L351:
 # D:/programs/partical_life/calcflow.cpp:240:         case OpKind::Add:  return "add";
	lea	rax, .LC22[rip]	 # _1,
	jmp	.L352	 #
.L349:
 # D:/programs/partical_life/calcflow.cpp:241:         case OpKind::Sub:  return "sub";
	lea	rax, .LC23[rip]	 # _1,
	jmp	.L352	 #
.L348:
 # D:/programs/partical_life/calcflow.cpp:242:         case OpKind::Mul:  return "mul";
	lea	rax, .LC24[rip]	 # _1,
	jmp	.L352	 #
.L347:
 # D:/programs/partical_life/calcflow.cpp:243:         case OpKind::Div:  return "div";
	lea	rax, .LC25[rip]	 # _1,
	jmp	.L352	 #
.L346:
 # D:/programs/partical_life/calcflow.cpp:244:         case OpKind::Pow:  return "pow";
	lea	rax, .LC26[rip]	 # _1,
	jmp	.L352	 #
.L345:
 # D:/programs/partical_life/calcflow.cpp:245:         case OpKind::Log:  return "log";
	lea	rax, .LC27[rip]	 # _1,
	jmp	.L352	 #
.L344:
 # D:/programs/partical_life/calcflow.cpp:246:         case OpKind::Neg:  return "neg";
	lea	rax, .LC28[rip]	 # _1,
	jmp	.L352	 #
.L343:
 # D:/programs/partical_life/calcflow.cpp:247:         case OpKind::Sin:  return "sin";
	lea	rax, .LC29[rip]	 # _1,
	jmp	.L352	 #
.L342:
 # D:/programs/partical_life/calcflow.cpp:248:         case OpKind::Cos:  return "cos";
	lea	rax, .LC30[rip]	 # _1,
	jmp	.L352	 #
.L341:
 # D:/programs/partical_life/calcflow.cpp:249:         case OpKind::Tan:  return "tan";
	lea	rax, .LC31[rip]	 # _1,
	jmp	.L352	 #
.L340:
 # D:/programs/partical_life/calcflow.cpp:250:         case OpKind::Exp:  return "exp";
	lea	rax, .LC32[rip]	 # _1,
	jmp	.L352	 #
.L339:
 # D:/programs/partical_life/calcflow.cpp:251:         case OpKind::Abs:  return "abs";
	lea	rax, .LC33[rip]	 # _1,
	jmp	.L352	 #
.L337:
 # D:/programs/partical_life/calcflow.cpp:252:         case OpKind::Var:  return "var";
	lea	rax, .LC34[rip]	 # _1,
	jmp	.L352	 #
.L338:
 # D:/programs/partical_life/calcflow.cpp:254:     return "unknown";
	lea	rax, .LC36[rip]	 # _1,
.L352:
 # D:/programs/partical_life/calcflow.cpp:255: }
	pop	rbp	 #
	ret	
	.seh_endproc
	.section	.text$_ZNK6Parser8peekTypeEv,"x"
	.linkonce discard
	.align 2
	.globl	_ZNK6Parser8peekTypeEv
	.def	_ZNK6Parser8peekTypeEv;	.scl	2;	.type	32;	.endef
	.seh_proc	_ZNK6Parser8peekTypeEv
_ZNK6Parser8peekTypeEv:
.LFB4802:
	push	rbp	 #
	.seh_pushreg	rbp
	mov	rbp, rsp	 #,
	.seh_setframe	rbp, 0
	sub	rsp, 32	 #,
	.seh_stackalloc	32
	.seh_endprologue
	mov	QWORD PTR 16[rbp], rcx	 # this, this
 # D:/programs/partical_life/calcflow.cpp:269: 	Token::Type peekType() const { return toks[pos].type; }
	mov	rax, QWORD PTR 16[rbp]	 # _1, this
 # D:/programs/partical_life/calcflow.cpp:269: 	Token::Type peekType() const { return toks[pos].type; }
	mov	rdx, QWORD PTR 16[rbp]	 # tmp103, this
	mov	rdx, QWORD PTR 24[rdx]	 # _2, this_4(D)->pos
 # D:/programs/partical_life/calcflow.cpp:269: 	Token::Type peekType() const { return toks[pos].type; }
	mov	rcx, rax	 #, _1
	call	_ZNKSt6vectorI5TokenSaIS0_EEixEy	 #
 # D:/programs/partical_life/calcflow.cpp:269: 	Token::Type peekType() const { return toks[pos].type; }
	mov	eax, DWORD PTR [rax]	 # _7, _3->type
 # D:/programs/partical_life/calcflow.cpp:269: 	Token::Type peekType() const { return toks[pos].type; }
	add	rsp, 32	 #,
	pop	rbp	 #
	ret	
	.seh_endproc
	.section	.text$_ZNKSt8optionalIN5Token4TypeEEcvbEv,"x"
	.linkonce discard
	.align 2
	.globl	_ZNKSt8optionalIN5Token4TypeEEcvbEv
	.def	_ZNKSt8optionalIN5Token4TypeEEcvbEv;	.scl	2;	.type	32;	.endef
	.seh_proc	_ZNKSt8optionalIN5Token4TypeEEcvbEv
_ZNKSt8optionalIN5Token4TypeEEcvbEv:
.LFB4804:
	push	rbp	 #
	.seh_pushreg	rbp
	mov	rbp, rsp	 #,
	.seh_setframe	rbp, 0
	sub	rsp, 32	 #,
	.seh_stackalloc	32
	.seh_endprologue
	mov	QWORD PTR 16[rbp], rcx	 # this, this
 # D:/mingw/mingw64/include/c++/15.1.0/optional:1205:       { return this->_M_is_engaged(); }
	mov	rax, QWORD PTR 16[rbp]	 # tmp100, this
	mov	rcx, rax	 #, tmp100
	call	_ZNKSt19_Optional_base_implIN5Token4TypeESt14_Optional_baseIS1_Lb1ELb1EEE13_M_is_engagedEv	 #
 # D:/mingw/mingw64/include/c++/15.1.0/optional:1205:       { return this->_M_is_engaged(); }
	add	rsp, 32	 #,
	pop	rbp	 #
	ret	
	.seh_endproc
	.section	.text$_ZNKSt19_Optional_base_implIN5Token4TypeESt14_Optional_baseIS1_Lb1ELb1EEE13_M_is_engagedEv,"x"
	.linkonce discard
	.align 2
	.globl	_ZNKSt19_Optional_base_implIN5Token4TypeESt14_Optional_baseIS1_Lb1ELb1EEE13_M_is_engagedEv
	.def	_ZNKSt19_Optional_base_implIN5Token4TypeESt14_Optional_baseIS1_Lb1ELb1EEE13_M_is_engagedEv;	.scl	2;	.type	32;	.endef
	.seh_proc	_ZNKSt19_Optional_base_implIN5Token4TypeESt14_Optional_baseIS1_Lb1ELb1EEE13_M_is_engagedEv
_ZNKSt19_Optional_base_implIN5Token4TypeESt14_Optional_baseIS1_Lb1ELb1EEE13_M_is_engagedEv:
.LFB4805:
	push	rbp	 #
	.seh_pushreg	rbp
	mov	rbp, rsp	 #,
	.seh_setframe	rbp, 0
	.seh_endprologue
	mov	QWORD PTR 16[rbp], rcx	 # this, this
 # D:/mingw/mingw64/include/c++/15.1.0/optional:613:       { return static_cast<const _Dp*>(this)->_M_payload._M_engaged; }
	mov	rax, QWORD PTR 16[rbp]	 # tmp100, this
	movzx	eax, BYTE PTR 4[rax]	 # _3, MEM[(const struct _Optional_base *)this_2(D)]._M_payload.D.103783._M_engaged
 # D:/mingw/mingw64/include/c++/15.1.0/optional:613:       { return static_cast<const _Dp*>(this)->_M_payload._M_engaged; }
	pop	rbp	 #
	ret	
	.seh_endproc
	.section .rdata,"dr"
	.align 8
.LC37:
	.ascii "\350\257\255\346\263\225\351\224\231\350\257\257: token \347\261\273\345\236\213\344\270\215\345\214\271\351\205\215\0"
	.section	.text$_ZN6Parser4takeESt8optionalIN5Token4TypeEE,"x"
	.linkonce discard
	.align 2
	.globl	_ZN6Parser4takeESt8optionalIN5Token4TypeEE
	.def	_ZN6Parser4takeESt8optionalIN5Token4TypeEE;	.scl	2;	.type	32;	.endef
	.seh_proc	_ZN6Parser4takeESt8optionalIN5Token4TypeEE
_ZN6Parser4takeESt8optionalIN5Token4TypeEE:
.LFB4803:
	push	rbp	 #
	.seh_pushreg	rbp
	push	rsi	 #
	.seh_pushreg	rsi
	push	rbx	 #
	.seh_pushreg	rbx
	sub	rsp, 48	 #,
	.seh_stackalloc	48
	lea	rbp, 48[rsp]	 #,
	.seh_setframe	rbp, 48
	.seh_endprologue
	mov	QWORD PTR 32[rbp], rcx	 # this, this
	mov	rax, rdx	 # tmp111, t
	mov	QWORD PTR 40[rbp], rax	 # t, tmp111
 # D:/programs/partical_life/calcflow.cpp:271: 		const Token& tk = toks[pos];
	mov	rax, QWORD PTR 32[rbp]	 # _1, this
 # D:/programs/partical_life/calcflow.cpp:271: 		const Token& tk = toks[pos];
	mov	rdx, QWORD PTR 32[rbp]	 # tmp112, this
	mov	rdx, QWORD PTR 24[rdx]	 # _2, this_12(D)->pos
 # D:/programs/partical_life/calcflow.cpp:271: 		const Token& tk = toks[pos];
	mov	rcx, rax	 #, _1
	call	_ZNSt6vectorI5TokenSaIS0_EEixEy	 #
	mov	QWORD PTR -8[rbp], rax	 # tk, tmp113
 # D:/programs/partical_life/calcflow.cpp:272: 		if (t && tk.type != *t) throw std::runtime_error(": token ");
	lea	rax, 40[rbp]	 # tmp114,
	mov	rcx, rax	 #, tmp114
	call	_ZNKSt8optionalIN5Token4TypeEEcvbEv	 #
 # D:/programs/partical_life/calcflow.cpp:272: 		if (t && tk.type != *t) throw std::runtime_error(": token ");
	test	al, al	 # _3
	je	.L360	 #,
 # D:/programs/partical_life/calcflow.cpp:272: 		if (t && tk.type != *t) throw std::runtime_error(": token ");
	mov	rax, QWORD PTR -8[rbp]	 # tmp115, tk
	mov	ebx, DWORD PTR [rax]	 # _4, tk_15->type
 # D:/programs/partical_life/calcflow.cpp:272: 		if (t && tk.type != *t) throw std::runtime_error(": token ");
	lea	rax, 40[rbp]	 # tmp116,
	mov	rcx, rax	 #, tmp116
	call	_ZNRSt8optionalIN5Token4TypeEEdeEv	 #
 # D:/programs/partical_life/calcflow.cpp:272: 		if (t && tk.type != *t) throw std::runtime_error(": token ");
	mov	eax, DWORD PTR [rax]	 # _6, *_5
 # D:/programs/partical_life/calcflow.cpp:272: 		if (t && tk.type != *t) throw std::runtime_error(": token ");
	cmp	ebx, eax	 # _4, _6
	je	.L360	 #,
 # D:/programs/partical_life/calcflow.cpp:272: 		if (t && tk.type != *t) throw std::runtime_error(": token ");
	mov	eax, 1	 # iftmp.170_9,
 # D:/programs/partical_life/calcflow.cpp:272: 		if (t && tk.type != *t) throw std::runtime_error(": token ");
	jmp	.L361	 #
.L360:
 # D:/programs/partical_life/calcflow.cpp:272: 		if (t && tk.type != *t) throw std::runtime_error(": token ");
	mov	eax, 0	 # iftmp.170_9,
.L361:
 # D:/programs/partical_life/calcflow.cpp:272: 		if (t && tk.type != *t) throw std::runtime_error(": token ");
	test	al, al	 # iftmp.170_9
	je	.L362	 #,
 # D:/programs/partical_life/calcflow.cpp:272: 		if (t && tk.type != *t) throw std::runtime_error(": token ");
	mov	ecx, 16	 #,
	call	__cxa_allocate_exception	 #
	mov	rbx, rax	 # _24, tmp117
 # D:/programs/partical_life/calcflow.cpp:272: 		if (t && tk.type != *t) throw std::runtime_error(": token ");
	lea	rax, .LC37[rip]	 # tmp118,
	mov	rdx, rax	 #, tmp118
	mov	rcx, rbx	 #, _24
.LEHB57:
	call	_ZNSt13runtime_errorC1EPKc	 #
.LEHE57:
 # D:/programs/partical_life/calcflow.cpp:272: 		if (t && tk.type != *t) throw std::runtime_error(": token ");
	mov	rdx, QWORD PTR .refptr._ZNSt13runtime_errorD1Ev[rip]	 # tmp119,
	lea	rax, _ZTISt13runtime_error[rip]	 # tmp120,
	mov	r8, rdx	 #, tmp119
	mov	rdx, rax	 #, tmp120
	mov	rcx, rbx	 #, _24
.LEHB58:
	call	__cxa_throw	 #
.L362:
 # D:/programs/partical_life/calcflow.cpp:273: 		++pos; return tk;
	mov	rax, QWORD PTR 32[rbp]	 # tmp121, this
	mov	rax, QWORD PTR 24[rax]	 # _7, this_12(D)->pos
 # D:/programs/partical_life/calcflow.cpp:273: 		++pos; return tk;
	lea	rdx, 1[rax]	 # _8,
	mov	rax, QWORD PTR 32[rbp]	 # tmp122, this
	mov	QWORD PTR 24[rax], rdx	 # this_12(D)->pos, _8
 # D:/programs/partical_life/calcflow.cpp:273: 		++pos; return tk;
	mov	rax, QWORD PTR -8[rbp]	 # _22, tk
	jmp	.L366	 #
.L365:
 # D:/programs/partical_life/calcflow.cpp:272: 		if (t && tk.type != *t) throw std::runtime_error(": token ");
	mov	rsi, rax	 # tmp124,
	mov	rcx, rbx	 #, _24
	call	__cxa_free_exception	 #
	mov	rax, rsi	 # D.139882, tmp124
	mov	rcx, rax	 #, D.139882
	call	_Unwind_Resume	 #
.LEHE58:
.L366:
 # D:/programs/partical_life/calcflow.cpp:274: 	}
	add	rsp, 48	 #,
	pop	rbx	 #
	pop	rsi	 #
	pop	rbp	 #
	ret	
	.seh_handler	__gxx_personality_seh0, @unwind, @except
	.seh_handlerdata
.LLSDA4803:
	.byte	0xff
	.byte	0xff
	.byte	0x1
	.uleb128 .LLSDACSE4803-.LLSDACSB4803
.LLSDACSB4803:
	.uleb128 .LEHB57-.LFB4803
	.uleb128 .LEHE57-.LEHB57
	.uleb128 .L365-.LFB4803
	.uleb128 0
	.uleb128 .LEHB58-.LFB4803
	.uleb128 .LEHE58-.LEHB58
	.uleb128 0
	.uleb128 0
.LLSDACSE4803:
	.section	.text$_ZN6Parser4takeESt8optionalIN5Token4TypeEE,"x"
	.linkonce discard
	.seh_endproc
	.section	.text$_ZN5TokenC1ERKS_,"x"
	.linkonce discard
	.align 2
	.globl	_ZN5TokenC1ERKS_
	.def	_ZN5TokenC1ERKS_;	.scl	2;	.type	32;	.endef
	.seh_proc	_ZN5TokenC1ERKS_
_ZN5TokenC1ERKS_:
.LFB4809:
	push	rbp	 #
	.seh_pushreg	rbp
	mov	rbp, rsp	 #,
	.seh_setframe	rbp, 0
	sub	rsp, 32	 #,
	.seh_stackalloc	32
	.seh_endprologue
	mov	QWORD PTR 16[rbp], rcx	 # this, this
	mov	QWORD PTR 24[rbp], rdx	 # D.104370, D.104370
 # D:/programs/partical_life/calcflow.cpp:153: struct Token {
	mov	rax, QWORD PTR 24[rbp]	 # tmp102, D.104370
	mov	edx, DWORD PTR [rax]	 # _1, _8(D)->type
	mov	rax, QWORD PTR 16[rbp]	 # tmp103, this
	mov	DWORD PTR [rax], edx	 # this_6(D)->type, _1
	mov	rax, QWORD PTR 16[rbp]	 # tmp104, this
	add	rax, 8	 # _2,
	mov	rdx, QWORD PTR 24[rbp]	 # tmp105, D.104370
	add	rdx, 8	 # _3,
	mov	rcx, rax	 #, _2
	call	_ZNSt7__cxx1112basic_stringIcSt11char_traitsIcESaIcEEC1ERKS4_	 #
	nop	
	add	rsp, 32	 #,
	pop	rbp	 #
	ret	
	.seh_endproc
	.section	.text$_ZNSt15__uniq_ptr_dataI4NodeSt14default_deleteIS0_ELb1ELb1EEC1EOS3_,"x"
	.linkonce discard
	.align 2
	.globl	_ZNSt15__uniq_ptr_dataI4NodeSt14default_deleteIS0_ELb1ELb1EEC1EOS3_
	.def	_ZNSt15__uniq_ptr_dataI4NodeSt14default_deleteIS0_ELb1ELb1EEC1EOS3_;	.scl	2;	.type	32;	.endef
	.seh_proc	_ZNSt15__uniq_ptr_dataI4NodeSt14default_deleteIS0_ELb1ELb1EEC1EOS3_
_ZNSt15__uniq_ptr_dataI4NodeSt14default_deleteIS0_ELb1ELb1EEC1EOS3_:
.LFB4813:
	push	rbp	 #
	.seh_pushreg	rbp
	mov	rbp, rsp	 #,
	.seh_setframe	rbp, 0
	sub	rsp, 32	 #,
	.seh_stackalloc	32
	.seh_endprologue
	mov	QWORD PTR 16[rbp], rcx	 # this, this
	mov	QWORD PTR 24[rbp], rdx	 # D.101700, D.101700
 # D:/mingw/mingw64/include/c++/15.1.0/bits/unique_ptr.h:236:       __uniq_ptr_data(__uniq_ptr_data&&) = default;
	mov	rax, QWORD PTR 16[rbp]	 # _1, this
	mov	rdx, QWORD PTR 24[rbp]	 # _2, D.101700
	mov	rcx, rax	 #, _1
	call	_ZNSt15__uniq_ptr_implI4NodeSt14default_deleteIS0_EEC2EOS3_	 #
	nop	
	add	rsp, 32	 #,
	pop	rbp	 #
	ret	
	.seh_endproc
	.section	.text$_ZNSt10unique_ptrI4NodeSt14default_deleteIS0_EEC1EOS3_,"x"
	.linkonce discard
	.align 2
	.globl	_ZNSt10unique_ptrI4NodeSt14default_deleteIS0_EEC1EOS3_
	.def	_ZNSt10unique_ptrI4NodeSt14default_deleteIS0_EEC1EOS3_;	.scl	2;	.type	32;	.endef
	.seh_proc	_ZNSt10unique_ptrI4NodeSt14default_deleteIS0_EEC1EOS3_
_ZNSt10unique_ptrI4NodeSt14default_deleteIS0_EEC1EOS3_:
.LFB4815:
	push	rbp	 #
	.seh_pushreg	rbp
	mov	rbp, rsp	 #,
	.seh_setframe	rbp, 0
	sub	rsp, 32	 #,
	.seh_stackalloc	32
	.seh_endprologue
	mov	QWORD PTR 16[rbp], rcx	 # this, this
	mov	QWORD PTR 24[rbp], rdx	 # D.101958, D.101958
 # D:/mingw/mingw64/include/c++/15.1.0/bits/unique_ptr.h:360:       unique_ptr(unique_ptr&&) = default;
	mov	rax, QWORD PTR 16[rbp]	 # _1, this
	mov	rdx, QWORD PTR 24[rbp]	 # _2, D.101958
	mov	rcx, rax	 #, _1
	call	_ZNSt15__uniq_ptr_dataI4NodeSt14default_deleteIS0_ELb1ELb1EEC1EOS3_	 #
	nop	
	add	rsp, 32	 #,
	pop	rbp	 #
	ret	
	.seh_endproc
	.section .rdata,"dr"
.LC38:
	.ascii "\346\227\240\346\263\225\350\247\243\346\236\220\347\232\204\350\265\267\345\247\213\347\254\246\0"
	.section	.text$_ZN6Parser12parsePrimaryEv,"x"
	.linkonce discard
	.align 2
	.globl	_ZN6Parser12parsePrimaryEv
	.def	_ZN6Parser12parsePrimaryEv;	.scl	2;	.type	32;	.endef
	.seh_proc	_ZN6Parser12parsePrimaryEv
_ZN6Parser12parsePrimaryEv:
.LFB4806:
	push	rbp	 #
	.seh_pushreg	rbp
	push	r12	 #
	.seh_pushreg	r12
	push	rdi	 #
	.seh_pushreg	rdi
	push	rsi	 #
	.seh_pushreg	rsi
	push	rbx	 #
	.seh_pushreg	rbx
	sub	rsp, 320	 #,
	.seh_stackalloc	320
	lea	rbp, 128[rsp]	 #,
	.seh_setframe	rbp, 128
	.seh_endprologue
	mov	QWORD PTR 240[rbp], rcx	 # .result_ptr, .result_ptr
	mov	QWORD PTR 248[rbp], rdx	 # this, this
 # D:/programs/partical_life/calcflow.cpp:277: 	std::unique_ptr<Node> parsePrimary() {
	mov	esi, 0	 # _54,
 # D:/programs/partical_life/calcflow.cpp:278: 		Token::Type t = peekType();
	mov	rax, QWORD PTR 248[rbp]	 # tmp151, this
	mov	rcx, rax	 #, tmp151
	call	_ZNK6Parser8peekTypeEv	 #
	mov	DWORD PTR 188[rbp], eax	 # t, tmp152
 # D:/programs/partical_life/calcflow.cpp:279: 		if (t == Token::Type::Number) {
	cmp	DWORD PTR 188[rbp], 0	 # t,
	jne	.L371	 #,
 # D:/programs/partical_life/calcflow.cpp:270: 	const Token& take(std::optional<Token::Type> t = std::nullopt) {
	lea	rax, 8[rbp]	 # tmp153,
	mov	edx, r12d	 #, D.133254
	mov	rcx, rax	 #, tmp153
	call	_ZNSt8optionalIN5Token4TypeEEC1ESt9nullopt_t	 #
 # D:/programs/partical_life/calcflow.cpp:280: 			auto v = take();
	mov	rdx, QWORD PTR 8[rbp]	 # tmp154, D.104358
	mov	rax, QWORD PTR 248[rbp]	 # tmp155, this
	mov	rcx, rax	 #, tmp155
.LEHB59:
	call	_ZN6Parser4takeESt8optionalIN5Token4TypeEE	 #
	mov	rdx, rax	 # _1,
 # D:/programs/partical_life/calcflow.cpp:280: 			auto v = take();
	lea	rax, -96[rbp]	 # tmp156,
	mov	rcx, rax	 #, tmp156
	call	_ZN5TokenC1ERKS_	 #
.LEHE59:
 # D:/programs/partical_life/calcflow.cpp:281: 			auto n = std::make_unique<Node>();
	mov	rax, QWORD PTR 240[rbp]	 # tmp157, <retval>
	mov	rcx, rax	 #, tmp157
.LEHB60:
	call	_ZSt11make_uniqueI4NodeJEENSt8__detail9_MakeUniqIT_E15__single_objectEDpOT0_	 #
.LEHE60:
 # D:/programs/partical_life/calcflow.cpp:282: 			n->kind = Node::Kind::Number;
	mov	rax, QWORD PTR 240[rbp]	 # tmp158, <retval>
	mov	rcx, rax	 #, tmp158
	call	_ZNKSt10unique_ptrI4NodeSt14default_deleteIS0_EEptEv	 #
 # D:/programs/partical_life/calcflow.cpp:282: 			n->kind = Node::Kind::Number;
	mov	DWORD PTR [rax], 0	 # _2->kind,
 # D:/programs/partical_life/calcflow.cpp:283: 			n->number = Complex(std::stod(v.value), 0.0);
	lea	rax, -96[rbp]	 # tmp159,
	add	rax, 8	 # tmp160,
	mov	edx, 0	 #,
	mov	rcx, rax	 #, tmp160
.LEHB61:
	call	_ZNSt7__cxx114stodERKNS_12basic_stringIcSt11char_traitsIcESaIcEEEPy	 #
.LEHE61:
	movq	rdx, xmm0	 # _3,
 # D:/programs/partical_life/calcflow.cpp:283: 			n->number = Complex(std::stod(v.value), 0.0);
	lea	rax, 16[rbp]	 # tmp161,
	pxor	xmm2, xmm2	 #
	movq	xmm1, rdx	 #, _3
	mov	rcx, rax	 #, tmp161
	call	_ZNSt7complexIdEC1Edd	 #
 # D:/programs/partical_life/calcflow.cpp:283: 			n->number = Complex(std::stod(v.value), 0.0);
	mov	rax, QWORD PTR 240[rbp]	 # tmp162, <retval>
	mov	rcx, rax	 #, tmp162
	call	_ZNKSt10unique_ptrI4NodeSt14default_deleteIS0_EEptEv	 #
 # D:/programs/partical_life/calcflow.cpp:283: 			n->number = Complex(std::stod(v.value), 0.0);
	movsd	xmm0, QWORD PTR 16[rbp]	 # tmp163, D.104397
	movsd	QWORD PTR 8[rax], xmm0	 # _4->number, tmp163
	movsd	xmm0, QWORD PTR 24[rbp]	 # tmp164, D.104397
	movsd	QWORD PTR 16[rax], xmm0	 # _4->number, tmp164
 # D:/programs/partical_life/calcflow.cpp:284: 			return n;
	mov	eax, 1	 # _245,
 # D:/programs/partical_life/calcflow.cpp:281: 			auto n = std::make_unique<Node>();
	test	al, al	 # _245
	jne	.L372	 #,
 # D:/programs/partical_life/calcflow.cpp:285: 		}
	mov	rax, QWORD PTR 240[rbp]	 # tmp165, <retval>
	mov	rcx, rax	 #, tmp165
	call	_ZNSt10unique_ptrI4NodeSt14default_deleteIS0_EED1Ev	 #
.L372:
	lea	rax, -96[rbp]	 # tmp166,
	mov	rcx, rax	 #, tmp166
	call	_ZN5TokenD1Ev	 #
 # D:/programs/partical_life/calcflow.cpp:333: 	}
	jmp	.L370	 #
.L371:
 # D:/programs/partical_life/calcflow.cpp:286: 		if (t == Token::Type::Imag) {
	cmp	DWORD PTR 188[rbp], 1	 # t,
	jne	.L374	 #,
 # D:/programs/partical_life/calcflow.cpp:270: 	const Token& take(std::optional<Token::Type> t = std::nullopt) {
	lea	rax, 40[rbp]	 # tmp167,
	mov	edx, edi	 #, D.133260
	mov	rcx, rax	 #, tmp167
	call	_ZNSt8optionalIN5Token4TypeEEC1ESt9nullopt_t	 #
 # D:/programs/partical_life/calcflow.cpp:287: 			auto v = take();
	mov	rdx, QWORD PTR 40[rbp]	 # tmp168, D.104409
	mov	rax, QWORD PTR 248[rbp]	 # tmp169, this
	mov	rcx, rax	 #, tmp169
.LEHB62:
	call	_ZN6Parser4takeESt8optionalIN5Token4TypeEE	 #
	mov	rdx, rax	 # _5,
 # D:/programs/partical_life/calcflow.cpp:287: 			auto v = take();
	lea	rax, -96[rbp]	 # tmp170,
	mov	rcx, rax	 #, tmp170
	call	_ZN5TokenC1ERKS_	 #
.LEHE62:
 # D:/programs/partical_life/calcflow.cpp:288: 			auto n = std::make_unique<Node>();
	mov	rax, rbp	 # tmp171,
	mov	rcx, rax	 #, tmp171
.LEHB63:
	call	_ZSt11make_uniqueI4NodeJEENSt8__detail9_MakeUniqIT_E15__single_objectEDpOT0_	 #
.LEHE63:
 # D:/programs/partical_life/calcflow.cpp:289: 			n->kind = Node::Kind::Number;
	mov	rax, rbp	 # tmp172,
	mov	rcx, rax	 #, tmp172
	call	_ZNKSt10unique_ptrI4NodeSt14default_deleteIS0_EEptEv	 #
 # D:/programs/partical_life/calcflow.cpp:289: 			n->kind = Node::Kind::Number;
	mov	DWORD PTR [rax], 0	 # _6->kind,
 # D:/programs/partical_life/calcflow.cpp:290: 			n->number = Complex(0.0, std::stod(v.value));
	lea	rax, -96[rbp]	 # tmp173,
	add	rax, 8	 # tmp174,
	mov	edx, 0	 #,
	mov	rcx, rax	 #, tmp174
.LEHB64:
	call	_ZNSt7__cxx114stodERKNS_12basic_stringIcSt11char_traitsIcESaIcEEEPy	 #
.LEHE64:
	movq	rdx, xmm0	 # _7,
 # D:/programs/partical_life/calcflow.cpp:290: 			n->number = Complex(0.0, std::stod(v.value));
	lea	rax, 48[rbp]	 # tmp175,
	movq	xmm2, rdx	 #, _7
	pxor	xmm1, xmm1	 #
	mov	rcx, rax	 #, tmp175
	call	_ZNSt7complexIdEC1Edd	 #
 # D:/programs/partical_life/calcflow.cpp:290: 			n->number = Complex(0.0, std::stod(v.value));
	mov	rax, rbp	 # tmp176,
	mov	rcx, rax	 #, tmp176
	call	_ZNKSt10unique_ptrI4NodeSt14default_deleteIS0_EEptEv	 #
 # D:/programs/partical_life/calcflow.cpp:290: 			n->number = Complex(0.0, std::stod(v.value));
	movsd	xmm0, QWORD PTR 48[rbp]	 # tmp177, D.104414
	movsd	QWORD PTR 8[rax], xmm0	 # _8->number, tmp177
	movsd	xmm0, QWORD PTR 56[rbp]	 # tmp178, D.104414
	movsd	QWORD PTR 16[rax], xmm0	 # _8->number, tmp178
 # D:/programs/partical_life/calcflow.cpp:291: 			return n;
	mov	rdx, rbp	 # tmp179,
	mov	rax, QWORD PTR 240[rbp]	 # tmp180, <retval>
	mov	rcx, rax	 #, tmp180
	call	_ZNSt10unique_ptrI4NodeSt14default_deleteIS0_EEC1EOS3_	 #
 # D:/programs/partical_life/calcflow.cpp:292: 		}
	mov	rax, rbp	 # tmp181,
	mov	rcx, rax	 #, tmp181
	call	_ZNSt10unique_ptrI4NodeSt14default_deleteIS0_EED1Ev	 #
 # D:/programs/partical_life/calcflow.cpp:292: 		}
	lea	rax, -96[rbp]	 # tmp182,
	mov	rcx, rax	 #, tmp182
	call	_ZN5TokenD1Ev	 #
 # D:/programs/partical_life/calcflow.cpp:333: 	}
	jmp	.L370	 #
.L374:
 # D:/programs/partical_life/calcflow.cpp:293: 		if (t == Token::Type::Ident) {
	cmp	DWORD PTR 188[rbp], 2	 # t,
	jne	.L375	 #,
 # D:/programs/partical_life/calcflow.cpp:270: 	const Token& take(std::optional<Token::Type> t = std::nullopt) {
	lea	rax, 68[rbp]	 # tmp183,
	mov	edx, ebx	 #, D.133263
	mov	rcx, rax	 #, tmp183
	call	_ZNSt8optionalIN5Token4TypeEEC1ESt9nullopt_t	 #
 # D:/programs/partical_life/calcflow.cpp:294: 			std::string ident = take().value;
	mov	rdx, QWORD PTR 68[rbp]	 # tmp184, D.104418
	mov	rax, QWORD PTR 248[rbp]	 # tmp185, this
	mov	rcx, rax	 #, tmp185
.LEHB65:
	call	_ZN6Parser4takeESt8optionalIN5Token4TypeEE	 #
 # D:/programs/partical_life/calcflow.cpp:294: 			std::string ident = take().value;
	lea	rdx, 8[rax]	 # _10,
	lea	rax, -96[rbp]	 # tmp186,
	mov	rcx, rax	 #, tmp186
	call	_ZNSt7__cxx1112basic_stringIcSt11char_traitsIcESaIcEEC1ERKS4_	 #
.LEHE65:
 # D:/programs/partical_life/calcflow.cpp:295: 			if (peekType() == Token::Type::LParen) {
	mov	rax, QWORD PTR 248[rbp]	 # tmp187, this
	mov	rcx, rax	 #, tmp187
	call	_ZNK6Parser8peekTypeEv	 #
 # D:/programs/partical_life/calcflow.cpp:295: 			if (peekType() == Token::Type::LParen) {
	cmp	eax, 8	 # _11,
	sete	al	 #, retval.135_126
